
rv64ui-p-slli:     file format elf64-littleriscv


Disassembly of section .text:

0000000000000100 <tvec_user>:
 100:	00000f17          	auipc	t5,0x0
 104:	414f0f13          	addi	t5,t5,1044 # 514 <ecall>
 108:	34102ff3          	csrr	t6,mepc
 10c:	07ff0c63          	beq	t5,t6,184 <write_tohost>
 110:	00000f17          	auipc	t5,0x0
 114:	ef0f0f13          	addi	t5,t5,-272 # 0 <tvec_user-0x100>
 118:	020f1863          	bnez	t5,148 <mrts_routine>
 11c:	00000f17          	auipc	t5,0x0
 120:	ee4f0f13          	addi	t5,t5,-284 # 0 <tvec_user-0x100>
 124:	000f0463          	beqz	t5,12c <tvec_user+0x2c>
 128:	ed9ff06f          	j	0 <tvec_user-0x100>
 12c:	0540006f          	j	180 <other_exception>
 130:	00000013          	nop
 134:	00000013          	nop
 138:	00000013          	nop
 13c:	00000013          	nop

0000000000000140 <tvec_supervisor>:
 140:	34202f73          	csrr	t5,mcause
 144:	fa0f5ee3          	bgez	t5,100 <tvec_user>

0000000000000148 <mrts_routine>:
 148:	30500073          	mrts
 14c:	00000013          	nop
 150:	00000013          	nop
 154:	00000013          	nop
 158:	00000013          	nop
 15c:	00000013          	nop
 160:	00000013          	nop
 164:	00000013          	nop
 168:	00000013          	nop
 16c:	00000013          	nop
 170:	00000013          	nop
 174:	00000013          	nop
 178:	00000013          	nop
 17c:	00000013          	nop

0000000000000180 <other_exception>:
 180:	539e6e13          	ori	t3,t3,1337

0000000000000184 <write_tohost>:
 184:	780e1073          	csrw	mtohost,t3
 188:	ffdff06f          	j	184 <write_tohost>
 18c:	00000013          	nop
 190:	00000013          	nop
 194:	00000013          	nop
 198:	00000013          	nop
 19c:	00000013          	nop
 1a0:	00000013          	nop
 1a4:	00000013          	nop
 1a8:	00000013          	nop
 1ac:	00000013          	nop
 1b0:	00000013          	nop
 1b4:	00000013          	nop
 1b8:	00000013          	nop
 1bc:	00000013          	nop

00000000000001c0 <tvec_machine>:
 1c0:	00000f17          	auipc	t5,0x0
 1c4:	354f0f13          	addi	t5,t5,852 # 514 <ecall>
 1c8:	34102ff3          	csrr	t6,mepc
 1cc:	fbff0ce3          	beq	t5,t6,184 <write_tohost>
 1d0:	00000f17          	auipc	t5,0x0
 1d4:	e30f0f13          	addi	t5,t5,-464 # 0 <tvec_user-0x100>
 1d8:	000f0463          	beqz	t5,1e0 <tvec_machine+0x20>
 1dc:	e25ff06f          	j	0 <tvec_user-0x100>
 1e0:	fa1ff06f          	j	180 <other_exception>
 1e4:	00000013          	nop
 1e8:	00000013          	nop
 1ec:	00000013          	nop
 1f0:	00000013          	nop
 1f4:	00000013          	nop
 1f8:	00000013          	nop
 1fc:	00000013          	nop

0000000000000200 <_start>:
 200:	f1002573          	csrr	a0,mhartid
 204:	00051063          	bnez	a0,204 <_start+0x4>
 208:	f0002573          	csrr	a0,mcpuid
 20c:	00054863          	bltz	a0,21c <_start+0x1c>
 210:	0ff0000f          	fence
 214:	00100e13          	li	t3,1
 218:	2fc0006f          	j	514 <ecall>
 21c:	00000e13          	li	t3,0
 220:	00000297          	auipc	t0,0x0
 224:	de028293          	addi	t0,t0,-544 # 0 <tvec_user-0x100>
 228:	00028463          	beqz	t0,230 <_start+0x30>
 22c:	10129073          	csrw	stvec,t0
 230:	1f800293          	li	t0,504
 234:	3002b073          	csrc	mstatus,t0
 238:	00000297          	auipc	t0,0x0
 23c:	01428293          	addi	t0,t0,20 # 24c <test_2>
 240:	34129073          	csrw	mepc,t0
 244:	f1002573          	csrr	a0,mhartid
 248:	10000073          	eret

000000000000024c <test_2>:
 24c:	00100093          	li	ra,1
 250:	00009193          	slli	gp,ra,0x0
 254:	00100e93          	li	t4,1
 258:	00200e13          	li	t3,2
 25c:	29d19c63          	bne	gp,t4,4f4 <fail>

0000000000000260 <test_3>:
 260:	00100093          	li	ra,1
 264:	00109193          	slli	gp,ra,0x1
 268:	00200e93          	li	t4,2
 26c:	00300e13          	li	t3,3
 270:	29d19263          	bne	gp,t4,4f4 <fail>

0000000000000274 <test_4>:
 274:	00100093          	li	ra,1
 278:	00709193          	slli	gp,ra,0x7
 27c:	08000e93          	li	t4,128
 280:	00400e13          	li	t3,4
 284:	27d19863          	bne	gp,t4,4f4 <fail>

0000000000000288 <test_5>:
 288:	00100093          	li	ra,1
 28c:	00e09193          	slli	gp,ra,0xe
 290:	00004eb7          	lui	t4,0x4
 294:	00500e13          	li	t3,5
 298:	25d19e63          	bne	gp,t4,4f4 <fail>

000000000000029c <test_6>:
 29c:	00100093          	li	ra,1
 2a0:	01f09193          	slli	gp,ra,0x1f
 2a4:	00100e9b          	addiw	t4,zero,1
 2a8:	01fe9e93          	slli	t4,t4,0x1f
 2ac:	00600e13          	li	t3,6
 2b0:	25d19263          	bne	gp,t4,4f4 <fail>

00000000000002b4 <test_7>:
 2b4:	fff00093          	li	ra,-1
 2b8:	00009193          	slli	gp,ra,0x0
 2bc:	fff00e93          	li	t4,-1
 2c0:	00700e13          	li	t3,7
 2c4:	23d19863          	bne	gp,t4,4f4 <fail>

00000000000002c8 <test_8>:
 2c8:	fff00093          	li	ra,-1
 2cc:	00109193          	slli	gp,ra,0x1
 2d0:	ffe00e93          	li	t4,-2
 2d4:	00800e13          	li	t3,8
 2d8:	21d19e63          	bne	gp,t4,4f4 <fail>

00000000000002dc <test_9>:
 2dc:	fff00093          	li	ra,-1
 2e0:	00709193          	slli	gp,ra,0x7
 2e4:	f8000e93          	li	t4,-128
 2e8:	00900e13          	li	t3,9
 2ec:	21d19463          	bne	gp,t4,4f4 <fail>

00000000000002f0 <test_10>:
 2f0:	fff00093          	li	ra,-1
 2f4:	00e09193          	slli	gp,ra,0xe
 2f8:	ffffceb7          	lui	t4,0xffffc
 2fc:	00a00e13          	li	t3,10
 300:	1fd19a63          	bne	gp,t4,4f4 <fail>

0000000000000304 <test_11>:
 304:	fff00093          	li	ra,-1
 308:	01f09193          	slli	gp,ra,0x1f
 30c:	80000eb7          	lui	t4,0x80000
 310:	00b00e13          	li	t3,11
 314:	1fd19063          	bne	gp,t4,4f4 <fail>

0000000000000318 <test_12>:
 318:	212120b7          	lui	ra,0x21212
 31c:	1210809b          	addiw	ra,ra,289
 320:	00009193          	slli	gp,ra,0x0
 324:	21212eb7          	lui	t4,0x21212
 328:	121e8e9b          	addiw	t4,t4,289
 32c:	00c00e13          	li	t3,12
 330:	1dd19263          	bne	gp,t4,4f4 <fail>

0000000000000334 <test_13>:
 334:	212120b7          	lui	ra,0x21212
 338:	1210809b          	addiw	ra,ra,289
 33c:	00109193          	slli	gp,ra,0x1
 340:	42424eb7          	lui	t4,0x42424
 344:	242e8e9b          	addiw	t4,t4,578
 348:	00d00e13          	li	t3,13
 34c:	1bd19463          	bne	gp,t4,4f4 <fail>

0000000000000350 <test_14>:
 350:	212120b7          	lui	ra,0x21212
 354:	1210809b          	addiw	ra,ra,289
 358:	00709193          	slli	gp,ra,0x7
 35c:	01091eb7          	lui	t4,0x1091
 360:	909e8e9b          	addiw	t4,t4,-1783
 364:	00ce9e93          	slli	t4,t4,0xc
 368:	080e8e93          	addi	t4,t4,128 # 1091080 <begin_signature+0x1090080>
 36c:	00e00e13          	li	t3,14
 370:	19d19263          	bne	gp,t4,4f4 <fail>

0000000000000374 <test_15>:
 374:	212120b7          	lui	ra,0x21212
 378:	1210809b          	addiw	ra,ra,289
 37c:	00e09193          	slli	gp,ra,0xe
 380:	21212eb7          	lui	t4,0x21212
 384:	121e8e9b          	addiw	t4,t4,289
 388:	00ee9e93          	slli	t4,t4,0xe
 38c:	00f00e13          	li	t3,15
 390:	17d19263          	bne	gp,t4,4f4 <fail>

0000000000000394 <test_16>:
 394:	212120b7          	lui	ra,0x21212
 398:	1210809b          	addiw	ra,ra,289
 39c:	01f09193          	slli	gp,ra,0x1f
 3a0:	21212eb7          	lui	t4,0x21212
 3a4:	121e8e9b          	addiw	t4,t4,289
 3a8:	01fe9e93          	slli	t4,t4,0x1f
 3ac:	01000e13          	li	t3,16
 3b0:	15d19263          	bne	gp,t4,4f4 <fail>

00000000000003b4 <test_17>:
 3b4:	00100093          	li	ra,1
 3b8:	00709093          	slli	ra,ra,0x7
 3bc:	08000e93          	li	t4,128
 3c0:	01100e13          	li	t3,17
 3c4:	13d09863          	bne	ra,t4,4f4 <fail>

00000000000003c8 <test_18>:
 3c8:	00000213          	li	tp,0
 3cc:	00100093          	li	ra,1
 3d0:	00709193          	slli	gp,ra,0x7
 3d4:	00018313          	mv	t1,gp
 3d8:	00120213          	addi	tp,tp,1 # 1 <tvec_user-0xff>
 3dc:	00200293          	li	t0,2
 3e0:	fe5216e3          	bne	tp,t0,3cc <test_18+0x4>
 3e4:	08000e93          	li	t4,128
 3e8:	01200e13          	li	t3,18
 3ec:	11d31463          	bne	t1,t4,4f4 <fail>

00000000000003f0 <test_19>:
 3f0:	00000213          	li	tp,0
 3f4:	00100093          	li	ra,1
 3f8:	00e09193          	slli	gp,ra,0xe
 3fc:	00000013          	nop
 400:	00018313          	mv	t1,gp
 404:	00120213          	addi	tp,tp,1 # 1 <tvec_user-0xff>
 408:	00200293          	li	t0,2
 40c:	fe5214e3          	bne	tp,t0,3f4 <test_19+0x4>
 410:	00004eb7          	lui	t4,0x4
 414:	01300e13          	li	t3,19
 418:	0dd31e63          	bne	t1,t4,4f4 <fail>

000000000000041c <test_20>:
 41c:	00000213          	li	tp,0
 420:	00100093          	li	ra,1
 424:	01f09193          	slli	gp,ra,0x1f
 428:	00000013          	nop
 42c:	00000013          	nop
 430:	00018313          	mv	t1,gp
 434:	00120213          	addi	tp,tp,1 # 1 <tvec_user-0xff>
 438:	00200293          	li	t0,2
 43c:	fe5212e3          	bne	tp,t0,420 <test_20+0x4>
 440:	00100e9b          	addiw	t4,zero,1
 444:	01fe9e93          	slli	t4,t4,0x1f
 448:	01400e13          	li	t3,20
 44c:	0bd31463          	bne	t1,t4,4f4 <fail>

0000000000000450 <test_21>:
 450:	00000213          	li	tp,0
 454:	00100093          	li	ra,1
 458:	00709193          	slli	gp,ra,0x7
 45c:	00120213          	addi	tp,tp,1 # 1 <tvec_user-0xff>
 460:	00200293          	li	t0,2
 464:	fe5218e3          	bne	tp,t0,454 <test_21+0x4>
 468:	08000e93          	li	t4,128
 46c:	01500e13          	li	t3,21
 470:	09d19263          	bne	gp,t4,4f4 <fail>

0000000000000474 <test_22>:
 474:	00000213          	li	tp,0
 478:	00100093          	li	ra,1
 47c:	00000013          	nop
 480:	00e09193          	slli	gp,ra,0xe
 484:	00120213          	addi	tp,tp,1 # 1 <tvec_user-0xff>
 488:	00200293          	li	t0,2
 48c:	fe5216e3          	bne	tp,t0,478 <test_22+0x4>
 490:	00004eb7          	lui	t4,0x4
 494:	01600e13          	li	t3,22
 498:	05d19e63          	bne	gp,t4,4f4 <fail>

000000000000049c <test_23>:
 49c:	00000213          	li	tp,0
 4a0:	00100093          	li	ra,1
 4a4:	00000013          	nop
 4a8:	00000013          	nop
 4ac:	01f09193          	slli	gp,ra,0x1f
 4b0:	00120213          	addi	tp,tp,1 # 1 <tvec_user-0xff>
 4b4:	00200293          	li	t0,2
 4b8:	fe5214e3          	bne	tp,t0,4a0 <test_23+0x4>
 4bc:	00100e9b          	addiw	t4,zero,1
 4c0:	01fe9e93          	slli	t4,t4,0x1f
 4c4:	01700e13          	li	t3,23
 4c8:	03d19663          	bne	gp,t4,4f4 <fail>

00000000000004cc <test_24>:
 4cc:	02001093          	slli	ra,zero,0x20
 4d0:	00000e93          	li	t4,0
 4d4:	01800e13          	li	t3,24
 4d8:	01d09e63          	bne	ra,t4,4f4 <fail>

00000000000004dc <test_25>:
 4dc:	02100093          	li	ra,33
 4e0:	03209013          	slli	zero,ra,0x32
 4e4:	00000e93          	li	t4,0
 4e8:	01900e13          	li	t3,25
 4ec:	01d01463          	bne	zero,t4,4f4 <fail>
 4f0:	01c01c63          	bne	zero,t3,508 <pass>

00000000000004f4 <fail>:
 4f4:	0ff0000f          	fence
 4f8:	000e0063          	beqz	t3,4f8 <fail+0x4>
 4fc:	001e1e13          	slli	t3,t3,0x1
 500:	001e6e13          	ori	t3,t3,1
 504:	0100006f          	j	514 <ecall>

0000000000000508 <pass>:
 508:	0ff0000f          	fence
 50c:	00100e13          	li	t3,1
 510:	0040006f          	j	514 <ecall>

0000000000000514 <ecall>:
 514:	00000073          	ecall
 518:	ffdff06f          	j	514 <ecall>
