
rv64ui-p-or:     file format elf64-littleriscv


Disassembly of section .text:

0000000000000100 <tvec_user>:
 100:	00000f17          	auipc	t5,0x0
 104:	748f0f13          	addi	t5,t5,1864 # 848 <ecall>
 108:	34102ff3          	csrr	t6,mepc
 10c:	07ff0c63          	beq	t5,t6,184 <write_tohost>
 110:	00000f17          	auipc	t5,0x0
 114:	ef0f0f13          	addi	t5,t5,-272 # 0 <tvec_user-0x100>
 118:	020f1863          	bnez	t5,148 <mrts_routine>
 11c:	00000f17          	auipc	t5,0x0
 120:	ee4f0f13          	addi	t5,t5,-284 # 0 <tvec_user-0x100>
 124:	000f0463          	beqz	t5,12c <tvec_user+0x2c>
 128:	ed9ff06f          	j	0 <tvec_user-0x100>
 12c:	0540006f          	j	180 <other_exception>
 130:	00000013          	nop
 134:	00000013          	nop
 138:	00000013          	nop
 13c:	00000013          	nop

0000000000000140 <tvec_supervisor>:
 140:	34202f73          	csrr	t5,mcause
 144:	fa0f5ee3          	bgez	t5,100 <tvec_user>

0000000000000148 <mrts_routine>:
 148:	30500073          	mrts
 14c:	00000013          	nop
 150:	00000013          	nop
 154:	00000013          	nop
 158:	00000013          	nop
 15c:	00000013          	nop
 160:	00000013          	nop
 164:	00000013          	nop
 168:	00000013          	nop
 16c:	00000013          	nop
 170:	00000013          	nop
 174:	00000013          	nop
 178:	00000013          	nop
 17c:	00000013          	nop

0000000000000180 <other_exception>:
 180:	539e6e13          	ori	t3,t3,1337

0000000000000184 <write_tohost>:
 184:	780e1073          	csrw	mtohost,t3
 188:	ffdff06f          	j	184 <write_tohost>
 18c:	00000013          	nop
 190:	00000013          	nop
 194:	00000013          	nop
 198:	00000013          	nop
 19c:	00000013          	nop
 1a0:	00000013          	nop
 1a4:	00000013          	nop
 1a8:	00000013          	nop
 1ac:	00000013          	nop
 1b0:	00000013          	nop
 1b4:	00000013          	nop
 1b8:	00000013          	nop
 1bc:	00000013          	nop

00000000000001c0 <tvec_machine>:
 1c0:	00000f17          	auipc	t5,0x0
 1c4:	688f0f13          	addi	t5,t5,1672 # 848 <ecall>
 1c8:	34102ff3          	csrr	t6,mepc
 1cc:	fbff0ce3          	beq	t5,t6,184 <write_tohost>
 1d0:	00000f17          	auipc	t5,0x0
 1d4:	e30f0f13          	addi	t5,t5,-464 # 0 <tvec_user-0x100>
 1d8:	000f0463          	beqz	t5,1e0 <tvec_machine+0x20>
 1dc:	e25ff06f          	j	0 <tvec_user-0x100>
 1e0:	fa1ff06f          	j	180 <other_exception>
 1e4:	00000013          	nop
 1e8:	00000013          	nop
 1ec:	00000013          	nop
 1f0:	00000013          	nop
 1f4:	00000013          	nop
 1f8:	00000013          	nop
 1fc:	00000013          	nop

0000000000000200 <_start>:
 200:	f1002573          	csrr	a0,mhartid
 204:	00051063          	bnez	a0,204 <_start+0x4>
 208:	f0002573          	csrr	a0,mcpuid
 20c:	00054863          	bltz	a0,21c <_start+0x1c>
 210:	0ff0000f          	fence
 214:	00100e13          	li	t3,1
 218:	6300006f          	j	848 <ecall>
 21c:	00000e13          	li	t3,0
 220:	00000297          	auipc	t0,0x0
 224:	de028293          	addi	t0,t0,-544 # 0 <tvec_user-0x100>
 228:	00028463          	beqz	t0,230 <_start+0x30>
 22c:	10129073          	csrw	stvec,t0
 230:	1f800293          	li	t0,504
 234:	3002b073          	csrc	mstatus,t0
 238:	00000297          	auipc	t0,0x0
 23c:	01428293          	addi	t0,t0,20 # 24c <test_2>
 240:	34129073          	csrw	mepc,t0
 244:	f1002573          	csrr	a0,mhartid
 248:	10000073          	eret

000000000000024c <test_2>:
 24c:	000100b7          	lui	ra,0x10
 250:	f010809b          	addiw	ra,ra,-255
 254:	01009093          	slli	ra,ra,0x10
 258:	f0008093          	addi	ra,ra,-256 # ff00 <begin_signature+0xef00>
 25c:	0f0f1137          	lui	sp,0xf0f1
 260:	f0f1011b          	addiw	sp,sp,-241
 264:	0020e1b3          	or	gp,ra,sp
 268:	00001eb7          	lui	t4,0x1
 26c:	ff1e8e9b          	addiw	t4,t4,-15
 270:	014e9e93          	slli	t4,t4,0x14
 274:	f0fe8e93          	addi	t4,t4,-241 # f0f <_end+0x6bf>
 278:	00200e13          	li	t3,2
 27c:	5bd19663          	bne	gp,t4,828 <fail>

0000000000000280 <test_3>:
 280:	0ff010b7          	lui	ra,0xff01
 284:	ff00809b          	addiw	ra,ra,-16
 288:	000f1137          	lui	sp,0xf1
 28c:	f0f1011b          	addiw	sp,sp,-241
 290:	00c11113          	slli	sp,sp,0xc
 294:	0f010113          	addi	sp,sp,240 # f10f0 <begin_signature+0xf00f0>
 298:	0020e1b3          	or	gp,ra,sp
 29c:	00010eb7          	lui	t4,0x10
 2a0:	ff1e8e9b          	addiw	t4,t4,-15
 2a4:	010e9e93          	slli	t4,t4,0x10
 2a8:	ff0e8e93          	addi	t4,t4,-16 # fff0 <begin_signature+0xeff0>
 2ac:	00300e13          	li	t3,3
 2b0:	57d19c63          	bne	gp,t4,828 <fail>

00000000000002b4 <test_4>:
 2b4:	00ff00b7          	lui	ra,0xff0
 2b8:	0ff0809b          	addiw	ra,ra,255
 2bc:	0f0f1137          	lui	sp,0xf0f1
 2c0:	f0f1011b          	addiw	sp,sp,-241
 2c4:	0020e1b3          	or	gp,ra,sp
 2c8:	0fff1eb7          	lui	t4,0xfff1
 2cc:	fffe8e9b          	addiw	t4,t4,-1
 2d0:	00400e13          	li	t3,4
 2d4:	55d19a63          	bne	gp,t4,828 <fail>

00000000000002d8 <test_5>:
 2d8:	000f00b7          	lui	ra,0xf0
 2dc:	0ff0809b          	addiw	ra,ra,255
 2e0:	00c09093          	slli	ra,ra,0xc
 2e4:	00f08093          	addi	ra,ra,15 # f000f <begin_signature+0xef00f>
 2e8:	000f1137          	lui	sp,0xf1
 2ec:	f0f1011b          	addiw	sp,sp,-241
 2f0:	00c11113          	slli	sp,sp,0xc
 2f4:	0f010113          	addi	sp,sp,240 # f10f0 <begin_signature+0xf00f0>
 2f8:	0020e1b3          	or	gp,ra,sp
 2fc:	000f1eb7          	lui	t4,0xf1
 300:	fffe8e9b          	addiw	t4,t4,-1
 304:	00ce9e93          	slli	t4,t4,0xc
 308:	0ffe8e93          	addi	t4,t4,255 # f10ff <begin_signature+0xf00ff>
 30c:	00500e13          	li	t3,5
 310:	51d19c63          	bne	gp,t4,828 <fail>

0000000000000314 <test_6>:
 314:	000100b7          	lui	ra,0x10
 318:	f010809b          	addiw	ra,ra,-255
 31c:	01009093          	slli	ra,ra,0x10
 320:	f0008093          	addi	ra,ra,-256 # ff00 <begin_signature+0xef00>
 324:	0f0f1137          	lui	sp,0xf0f1
 328:	f0f1011b          	addiw	sp,sp,-241
 32c:	0020e0b3          	or	ra,ra,sp
 330:	00001eb7          	lui	t4,0x1
 334:	ff1e8e9b          	addiw	t4,t4,-15
 338:	014e9e93          	slli	t4,t4,0x14
 33c:	f0fe8e93          	addi	t4,t4,-241 # f0f <_end+0x6bf>
 340:	00600e13          	li	t3,6
 344:	4fd09263          	bne	ra,t4,828 <fail>

0000000000000348 <test_7>:
 348:	000100b7          	lui	ra,0x10
 34c:	f010809b          	addiw	ra,ra,-255
 350:	01009093          	slli	ra,ra,0x10
 354:	f0008093          	addi	ra,ra,-256 # ff00 <begin_signature+0xef00>
 358:	0f0f1137          	lui	sp,0xf0f1
 35c:	f0f1011b          	addiw	sp,sp,-241
 360:	0020e133          	or	sp,ra,sp
 364:	00001eb7          	lui	t4,0x1
 368:	ff1e8e9b          	addiw	t4,t4,-15
 36c:	014e9e93          	slli	t4,t4,0x14
 370:	f0fe8e93          	addi	t4,t4,-241 # f0f <_end+0x6bf>
 374:	00700e13          	li	t3,7
 378:	4bd11863          	bne	sp,t4,828 <fail>

000000000000037c <test_8>:
 37c:	000100b7          	lui	ra,0x10
 380:	f010809b          	addiw	ra,ra,-255
 384:	01009093          	slli	ra,ra,0x10
 388:	f0008093          	addi	ra,ra,-256 # ff00 <begin_signature+0xef00>
 38c:	0010e0b3          	or	ra,ra,ra
 390:	00010eb7          	lui	t4,0x10
 394:	f01e8e9b          	addiw	t4,t4,-255
 398:	010e9e93          	slli	t4,t4,0x10
 39c:	f00e8e93          	addi	t4,t4,-256 # ff00 <begin_signature+0xef00>
 3a0:	00800e13          	li	t3,8
 3a4:	49d09263          	bne	ra,t4,828 <fail>

00000000000003a8 <test_9>:
 3a8:	00000213          	li	tp,0
 3ac:	000100b7          	lui	ra,0x10
 3b0:	f010809b          	addiw	ra,ra,-255
 3b4:	01009093          	slli	ra,ra,0x10
 3b8:	f0008093          	addi	ra,ra,-256 # ff00 <begin_signature+0xef00>
 3bc:	0f0f1137          	lui	sp,0xf0f1
 3c0:	f0f1011b          	addiw	sp,sp,-241
 3c4:	0020e1b3          	or	gp,ra,sp
 3c8:	00018313          	mv	t1,gp
 3cc:	00120213          	addi	tp,tp,1 # 1 <tvec_user-0xff>
 3d0:	00200293          	li	t0,2
 3d4:	fc521ce3          	bne	tp,t0,3ac <test_9+0x4>
 3d8:	00001eb7          	lui	t4,0x1
 3dc:	ff1e8e9b          	addiw	t4,t4,-15
 3e0:	014e9e93          	slli	t4,t4,0x14
 3e4:	f0fe8e93          	addi	t4,t4,-241 # f0f <_end+0x6bf>
 3e8:	00900e13          	li	t3,9
 3ec:	43d31e63          	bne	t1,t4,828 <fail>

00000000000003f0 <test_10>:
 3f0:	00000213          	li	tp,0
 3f4:	0ff010b7          	lui	ra,0xff01
 3f8:	ff00809b          	addiw	ra,ra,-16
 3fc:	000f1137          	lui	sp,0xf1
 400:	f0f1011b          	addiw	sp,sp,-241
 404:	00c11113          	slli	sp,sp,0xc
 408:	0f010113          	addi	sp,sp,240 # f10f0 <begin_signature+0xf00f0>
 40c:	0020e1b3          	or	gp,ra,sp
 410:	00000013          	nop
 414:	00018313          	mv	t1,gp
 418:	00120213          	addi	tp,tp,1 # 1 <tvec_user-0xff>
 41c:	00200293          	li	t0,2
 420:	fc521ae3          	bne	tp,t0,3f4 <test_10+0x4>
 424:	00010eb7          	lui	t4,0x10
 428:	ff1e8e9b          	addiw	t4,t4,-15
 42c:	010e9e93          	slli	t4,t4,0x10
 430:	ff0e8e93          	addi	t4,t4,-16 # fff0 <begin_signature+0xeff0>
 434:	00a00e13          	li	t3,10
 438:	3fd31863          	bne	t1,t4,828 <fail>

000000000000043c <test_11>:
 43c:	00000213          	li	tp,0
 440:	00ff00b7          	lui	ra,0xff0
 444:	0ff0809b          	addiw	ra,ra,255
 448:	0f0f1137          	lui	sp,0xf0f1
 44c:	f0f1011b          	addiw	sp,sp,-241
 450:	0020e1b3          	or	gp,ra,sp
 454:	00000013          	nop
 458:	00000013          	nop
 45c:	00018313          	mv	t1,gp
 460:	00120213          	addi	tp,tp,1 # 1 <tvec_user-0xff>
 464:	00200293          	li	t0,2
 468:	fc521ce3          	bne	tp,t0,440 <test_11+0x4>
 46c:	0fff1eb7          	lui	t4,0xfff1
 470:	fffe8e9b          	addiw	t4,t4,-1
 474:	00b00e13          	li	t3,11
 478:	3bd31863          	bne	t1,t4,828 <fail>

000000000000047c <test_12>:
 47c:	00000213          	li	tp,0
 480:	000100b7          	lui	ra,0x10
 484:	f010809b          	addiw	ra,ra,-255
 488:	01009093          	slli	ra,ra,0x10
 48c:	f0008093          	addi	ra,ra,-256 # ff00 <begin_signature+0xef00>
 490:	0f0f1137          	lui	sp,0xf0f1
 494:	f0f1011b          	addiw	sp,sp,-241
 498:	0020e1b3          	or	gp,ra,sp
 49c:	00120213          	addi	tp,tp,1 # 1 <tvec_user-0xff>
 4a0:	00200293          	li	t0,2
 4a4:	fc521ee3          	bne	tp,t0,480 <test_12+0x4>
 4a8:	00001eb7          	lui	t4,0x1
 4ac:	ff1e8e9b          	addiw	t4,t4,-15
 4b0:	014e9e93          	slli	t4,t4,0x14
 4b4:	f0fe8e93          	addi	t4,t4,-241 # f0f <_end+0x6bf>
 4b8:	00c00e13          	li	t3,12
 4bc:	37d19663          	bne	gp,t4,828 <fail>

00000000000004c0 <test_13>:
 4c0:	00000213          	li	tp,0
 4c4:	0ff010b7          	lui	ra,0xff01
 4c8:	ff00809b          	addiw	ra,ra,-16
 4cc:	000f1137          	lui	sp,0xf1
 4d0:	f0f1011b          	addiw	sp,sp,-241
 4d4:	00c11113          	slli	sp,sp,0xc
 4d8:	0f010113          	addi	sp,sp,240 # f10f0 <begin_signature+0xf00f0>
 4dc:	00000013          	nop
 4e0:	0020e1b3          	or	gp,ra,sp
 4e4:	00120213          	addi	tp,tp,1 # 1 <tvec_user-0xff>
 4e8:	00200293          	li	t0,2
 4ec:	fc521ce3          	bne	tp,t0,4c4 <test_13+0x4>
 4f0:	00010eb7          	lui	t4,0x10
 4f4:	ff1e8e9b          	addiw	t4,t4,-15
 4f8:	010e9e93          	slli	t4,t4,0x10
 4fc:	ff0e8e93          	addi	t4,t4,-16 # fff0 <begin_signature+0xeff0>
 500:	00d00e13          	li	t3,13
 504:	33d19263          	bne	gp,t4,828 <fail>

0000000000000508 <test_14>:
 508:	00000213          	li	tp,0
 50c:	00ff00b7          	lui	ra,0xff0
 510:	0ff0809b          	addiw	ra,ra,255
 514:	0f0f1137          	lui	sp,0xf0f1
 518:	f0f1011b          	addiw	sp,sp,-241
 51c:	00000013          	nop
 520:	00000013          	nop
 524:	0020e1b3          	or	gp,ra,sp
 528:	00120213          	addi	tp,tp,1 # 1 <tvec_user-0xff>
 52c:	00200293          	li	t0,2
 530:	fc521ee3          	bne	tp,t0,50c <test_14+0x4>
 534:	0fff1eb7          	lui	t4,0xfff1
 538:	fffe8e9b          	addiw	t4,t4,-1
 53c:	00e00e13          	li	t3,14
 540:	2fd19463          	bne	gp,t4,828 <fail>

0000000000000544 <test_15>:
 544:	00000213          	li	tp,0
 548:	000100b7          	lui	ra,0x10
 54c:	f010809b          	addiw	ra,ra,-255
 550:	01009093          	slli	ra,ra,0x10
 554:	f0008093          	addi	ra,ra,-256 # ff00 <begin_signature+0xef00>
 558:	00000013          	nop
 55c:	0f0f1137          	lui	sp,0xf0f1
 560:	f0f1011b          	addiw	sp,sp,-241
 564:	0020e1b3          	or	gp,ra,sp
 568:	00120213          	addi	tp,tp,1 # 1 <tvec_user-0xff>
 56c:	00200293          	li	t0,2
 570:	fc521ce3          	bne	tp,t0,548 <test_15+0x4>
 574:	00001eb7          	lui	t4,0x1
 578:	ff1e8e9b          	addiw	t4,t4,-15
 57c:	014e9e93          	slli	t4,t4,0x14
 580:	f0fe8e93          	addi	t4,t4,-241 # f0f <_end+0x6bf>
 584:	00f00e13          	li	t3,15
 588:	2bd19063          	bne	gp,t4,828 <fail>

000000000000058c <test_16>:
 58c:	00000213          	li	tp,0
 590:	0ff010b7          	lui	ra,0xff01
 594:	ff00809b          	addiw	ra,ra,-16
 598:	00000013          	nop
 59c:	000f1137          	lui	sp,0xf1
 5a0:	f0f1011b          	addiw	sp,sp,-241
 5a4:	00c11113          	slli	sp,sp,0xc
 5a8:	0f010113          	addi	sp,sp,240 # f10f0 <begin_signature+0xf00f0>
 5ac:	00000013          	nop
 5b0:	0020e1b3          	or	gp,ra,sp
 5b4:	00120213          	addi	tp,tp,1 # 1 <tvec_user-0xff>
 5b8:	00200293          	li	t0,2
 5bc:	fc521ae3          	bne	tp,t0,590 <test_16+0x4>
 5c0:	00010eb7          	lui	t4,0x10
 5c4:	ff1e8e9b          	addiw	t4,t4,-15
 5c8:	010e9e93          	slli	t4,t4,0x10
 5cc:	ff0e8e93          	addi	t4,t4,-16 # fff0 <begin_signature+0xeff0>
 5d0:	01000e13          	li	t3,16
 5d4:	25d19a63          	bne	gp,t4,828 <fail>

00000000000005d8 <test_17>:
 5d8:	00000213          	li	tp,0
 5dc:	00ff00b7          	lui	ra,0xff0
 5e0:	0ff0809b          	addiw	ra,ra,255
 5e4:	00000013          	nop
 5e8:	00000013          	nop
 5ec:	0f0f1137          	lui	sp,0xf0f1
 5f0:	f0f1011b          	addiw	sp,sp,-241
 5f4:	0020e1b3          	or	gp,ra,sp
 5f8:	00120213          	addi	tp,tp,1 # 1 <tvec_user-0xff>
 5fc:	00200293          	li	t0,2
 600:	fc521ee3          	bne	tp,t0,5dc <test_17+0x4>
 604:	0fff1eb7          	lui	t4,0xfff1
 608:	fffe8e9b          	addiw	t4,t4,-1
 60c:	01100e13          	li	t3,17
 610:	21d19c63          	bne	gp,t4,828 <fail>

0000000000000614 <test_18>:
 614:	00000213          	li	tp,0
 618:	0f0f1137          	lui	sp,0xf0f1
 61c:	f0f1011b          	addiw	sp,sp,-241
 620:	000100b7          	lui	ra,0x10
 624:	f010809b          	addiw	ra,ra,-255
 628:	01009093          	slli	ra,ra,0x10
 62c:	f0008093          	addi	ra,ra,-256 # ff00 <begin_signature+0xef00>
 630:	0020e1b3          	or	gp,ra,sp
 634:	00120213          	addi	tp,tp,1 # 1 <tvec_user-0xff>
 638:	00200293          	li	t0,2
 63c:	fc521ee3          	bne	tp,t0,618 <test_18+0x4>
 640:	00001eb7          	lui	t4,0x1
 644:	ff1e8e9b          	addiw	t4,t4,-15
 648:	014e9e93          	slli	t4,t4,0x14
 64c:	f0fe8e93          	addi	t4,t4,-241 # f0f <_end+0x6bf>
 650:	01200e13          	li	t3,18
 654:	1dd19a63          	bne	gp,t4,828 <fail>

0000000000000658 <test_19>:
 658:	00000213          	li	tp,0
 65c:	000f1137          	lui	sp,0xf1
 660:	f0f1011b          	addiw	sp,sp,-241
 664:	00c11113          	slli	sp,sp,0xc
 668:	0f010113          	addi	sp,sp,240 # f10f0 <begin_signature+0xf00f0>
 66c:	0ff010b7          	lui	ra,0xff01
 670:	ff00809b          	addiw	ra,ra,-16
 674:	00000013          	nop
 678:	0020e1b3          	or	gp,ra,sp
 67c:	00120213          	addi	tp,tp,1 # 1 <tvec_user-0xff>
 680:	00200293          	li	t0,2
 684:	fc521ce3          	bne	tp,t0,65c <test_19+0x4>
 688:	00010eb7          	lui	t4,0x10
 68c:	ff1e8e9b          	addiw	t4,t4,-15
 690:	010e9e93          	slli	t4,t4,0x10
 694:	ff0e8e93          	addi	t4,t4,-16 # fff0 <begin_signature+0xeff0>
 698:	01300e13          	li	t3,19
 69c:	19d19663          	bne	gp,t4,828 <fail>

00000000000006a0 <test_20>:
 6a0:	00000213          	li	tp,0
 6a4:	0f0f1137          	lui	sp,0xf0f1
 6a8:	f0f1011b          	addiw	sp,sp,-241
 6ac:	00ff00b7          	lui	ra,0xff0
 6b0:	0ff0809b          	addiw	ra,ra,255
 6b4:	00000013          	nop
 6b8:	00000013          	nop
 6bc:	0020e1b3          	or	gp,ra,sp
 6c0:	00120213          	addi	tp,tp,1 # 1 <tvec_user-0xff>
 6c4:	00200293          	li	t0,2
 6c8:	fc521ee3          	bne	tp,t0,6a4 <test_20+0x4>
 6cc:	0fff1eb7          	lui	t4,0xfff1
 6d0:	fffe8e9b          	addiw	t4,t4,-1
 6d4:	01400e13          	li	t3,20
 6d8:	15d19863          	bne	gp,t4,828 <fail>

00000000000006dc <test_21>:
 6dc:	00000213          	li	tp,0
 6e0:	0f0f1137          	lui	sp,0xf0f1
 6e4:	f0f1011b          	addiw	sp,sp,-241
 6e8:	00000013          	nop
 6ec:	000100b7          	lui	ra,0x10
 6f0:	f010809b          	addiw	ra,ra,-255
 6f4:	01009093          	slli	ra,ra,0x10
 6f8:	f0008093          	addi	ra,ra,-256 # ff00 <begin_signature+0xef00>
 6fc:	0020e1b3          	or	gp,ra,sp
 700:	00120213          	addi	tp,tp,1 # 1 <tvec_user-0xff>
 704:	00200293          	li	t0,2
 708:	fc521ce3          	bne	tp,t0,6e0 <test_21+0x4>
 70c:	00001eb7          	lui	t4,0x1
 710:	ff1e8e9b          	addiw	t4,t4,-15
 714:	014e9e93          	slli	t4,t4,0x14
 718:	f0fe8e93          	addi	t4,t4,-241 # f0f <_end+0x6bf>
 71c:	01500e13          	li	t3,21
 720:	11d19463          	bne	gp,t4,828 <fail>

0000000000000724 <test_22>:
 724:	00000213          	li	tp,0
 728:	000f1137          	lui	sp,0xf1
 72c:	f0f1011b          	addiw	sp,sp,-241
 730:	00c11113          	slli	sp,sp,0xc
 734:	0f010113          	addi	sp,sp,240 # f10f0 <begin_signature+0xf00f0>
 738:	00000013          	nop
 73c:	0ff010b7          	lui	ra,0xff01
 740:	ff00809b          	addiw	ra,ra,-16
 744:	00000013          	nop
 748:	0020e1b3          	or	gp,ra,sp
 74c:	00120213          	addi	tp,tp,1 # 1 <tvec_user-0xff>
 750:	00200293          	li	t0,2
 754:	fc521ae3          	bne	tp,t0,728 <test_22+0x4>
 758:	00010eb7          	lui	t4,0x10
 75c:	ff1e8e9b          	addiw	t4,t4,-15
 760:	010e9e93          	slli	t4,t4,0x10
 764:	ff0e8e93          	addi	t4,t4,-16 # fff0 <begin_signature+0xeff0>
 768:	01600e13          	li	t3,22
 76c:	0bd19e63          	bne	gp,t4,828 <fail>

0000000000000770 <test_23>:
 770:	00000213          	li	tp,0
 774:	0f0f1137          	lui	sp,0xf0f1
 778:	f0f1011b          	addiw	sp,sp,-241
 77c:	00000013          	nop
 780:	00000013          	nop
 784:	00ff00b7          	lui	ra,0xff0
 788:	0ff0809b          	addiw	ra,ra,255
 78c:	0020e1b3          	or	gp,ra,sp
 790:	00120213          	addi	tp,tp,1 # 1 <tvec_user-0xff>
 794:	00200293          	li	t0,2
 798:	fc521ee3          	bne	tp,t0,774 <test_23+0x4>
 79c:	0fff1eb7          	lui	t4,0xfff1
 7a0:	fffe8e9b          	addiw	t4,t4,-1
 7a4:	01700e13          	li	t3,23
 7a8:	09d19063          	bne	gp,t4,828 <fail>

00000000000007ac <test_24>:
 7ac:	000100b7          	lui	ra,0x10
 7b0:	f010809b          	addiw	ra,ra,-255
 7b4:	01009093          	slli	ra,ra,0x10
 7b8:	f0008093          	addi	ra,ra,-256 # ff00 <begin_signature+0xef00>
 7bc:	00106133          	or	sp,zero,ra
 7c0:	00010eb7          	lui	t4,0x10
 7c4:	f01e8e9b          	addiw	t4,t4,-255
 7c8:	010e9e93          	slli	t4,t4,0x10
 7cc:	f00e8e93          	addi	t4,t4,-256 # ff00 <begin_signature+0xef00>
 7d0:	01800e13          	li	t3,24
 7d4:	05d11a63          	bne	sp,t4,828 <fail>

00000000000007d8 <test_25>:
 7d8:	00ff00b7          	lui	ra,0xff0
 7dc:	0ff0809b          	addiw	ra,ra,255
 7e0:	0000e133          	or	sp,ra,zero
 7e4:	00ff0eb7          	lui	t4,0xff0
 7e8:	0ffe8e9b          	addiw	t4,t4,255
 7ec:	01900e13          	li	t3,25
 7f0:	03d11c63          	bne	sp,t4,828 <fail>

00000000000007f4 <test_26>:
 7f4:	000060b3          	or	ra,zero,zero
 7f8:	00000e93          	li	t4,0
 7fc:	01a00e13          	li	t3,26
 800:	03d09463          	bne	ra,t4,828 <fail>

0000000000000804 <test_27>:
 804:	111110b7          	lui	ra,0x11111
 808:	1110809b          	addiw	ra,ra,273
 80c:	22222137          	lui	sp,0x22222
 810:	2221011b          	addiw	sp,sp,546
 814:	0020e033          	or	zero,ra,sp
 818:	00000e93          	li	t4,0
 81c:	01b00e13          	li	t3,27
 820:	01d01463          	bne	zero,t4,828 <fail>
 824:	01c01c63          	bne	zero,t3,83c <pass>

0000000000000828 <fail>:
 828:	0ff0000f          	fence
 82c:	000e0063          	beqz	t3,82c <fail+0x4>
 830:	001e1e13          	slli	t3,t3,0x1
 834:	001e6e13          	ori	t3,t3,1
 838:	0100006f          	j	848 <ecall>

000000000000083c <pass>:
 83c:	0ff0000f          	fence
 840:	00100e13          	li	t3,1
 844:	0040006f          	j	848 <ecall>

0000000000000848 <ecall>:
 848:	00000073          	ecall
 84c:	ffdff06f          	j	848 <ecall>
