
rv64ui-p-andi:     file format elf64-littleriscv


Disassembly of section .text:

0000000000000100 <tvec_user>:
 100:	00000f17          	auipc	t5,0x0
 104:	364f0f13          	addi	t5,t5,868 # 464 <ecall>
 108:	34102ff3          	csrr	t6,mepc
 10c:	07ff0c63          	beq	t5,t6,184 <write_tohost>
 110:	00000f17          	auipc	t5,0x0
 114:	ef0f0f13          	addi	t5,t5,-272 # 0 <tvec_user-0x100>
 118:	020f1863          	bnez	t5,148 <mrts_routine>
 11c:	00000f17          	auipc	t5,0x0
 120:	ee4f0f13          	addi	t5,t5,-284 # 0 <tvec_user-0x100>
 124:	000f0463          	beqz	t5,12c <tvec_user+0x2c>
 128:	ed9ff06f          	j	0 <tvec_user-0x100>
 12c:	0540006f          	j	180 <other_exception>
 130:	00000013          	nop
 134:	00000013          	nop
 138:	00000013          	nop
 13c:	00000013          	nop

0000000000000140 <tvec_supervisor>:
 140:	34202f73          	csrr	t5,mcause
 144:	fa0f5ee3          	bgez	t5,100 <tvec_user>

0000000000000148 <mrts_routine>:
 148:	30500073          	mrts
 14c:	00000013          	nop
 150:	00000013          	nop
 154:	00000013          	nop
 158:	00000013          	nop
 15c:	00000013          	nop
 160:	00000013          	nop
 164:	00000013          	nop
 168:	00000013          	nop
 16c:	00000013          	nop
 170:	00000013          	nop
 174:	00000013          	nop
 178:	00000013          	nop
 17c:	00000013          	nop

0000000000000180 <other_exception>:
 180:	539e6e13          	ori	t3,t3,1337

0000000000000184 <write_tohost>:
 184:	780e1073          	csrw	mtohost,t3
 188:	ffdff06f          	j	184 <write_tohost>
 18c:	00000013          	nop
 190:	00000013          	nop
 194:	00000013          	nop
 198:	00000013          	nop
 19c:	00000013          	nop
 1a0:	00000013          	nop
 1a4:	00000013          	nop
 1a8:	00000013          	nop
 1ac:	00000013          	nop
 1b0:	00000013          	nop
 1b4:	00000013          	nop
 1b8:	00000013          	nop
 1bc:	00000013          	nop

00000000000001c0 <tvec_machine>:
 1c0:	00000f17          	auipc	t5,0x0
 1c4:	2a4f0f13          	addi	t5,t5,676 # 464 <ecall>
 1c8:	34102ff3          	csrr	t6,mepc
 1cc:	fbff0ce3          	beq	t5,t6,184 <write_tohost>
 1d0:	00000f17          	auipc	t5,0x0
 1d4:	e30f0f13          	addi	t5,t5,-464 # 0 <tvec_user-0x100>
 1d8:	000f0463          	beqz	t5,1e0 <tvec_machine+0x20>
 1dc:	e25ff06f          	j	0 <tvec_user-0x100>
 1e0:	fa1ff06f          	j	180 <other_exception>
 1e4:	00000013          	nop
 1e8:	00000013          	nop
 1ec:	00000013          	nop
 1f0:	00000013          	nop
 1f4:	00000013          	nop
 1f8:	00000013          	nop
 1fc:	00000013          	nop

0000000000000200 <_start>:
 200:	f1002573          	csrr	a0,mhartid
 204:	00051063          	bnez	a0,204 <_start+0x4>
 208:	f0002573          	csrr	a0,mcpuid
 20c:	00054863          	bltz	a0,21c <_start+0x1c>
 210:	0ff0000f          	fence
 214:	00100e13          	li	t3,1
 218:	24c0006f          	j	464 <ecall>
 21c:	00000e13          	li	t3,0
 220:	00000297          	auipc	t0,0x0
 224:	de028293          	addi	t0,t0,-544 # 0 <tvec_user-0x100>
 228:	00028463          	beqz	t0,230 <_start+0x30>
 22c:	10129073          	csrw	stvec,t0
 230:	1f800293          	li	t0,504
 234:	3002b073          	csrc	mstatus,t0
 238:	00000297          	auipc	t0,0x0
 23c:	01428293          	addi	t0,t0,20 # 24c <test_2>
 240:	34129073          	csrw	mepc,t0
 244:	f1002573          	csrr	a0,mhartid
 248:	10000073          	eret

000000000000024c <test_2>:
 24c:	000100b7          	lui	ra,0x10
 250:	f010809b          	addiw	ra,ra,-255
 254:	01009093          	slli	ra,ra,0x10
 258:	f0008093          	addi	ra,ra,-256 # ff00 <begin_signature+0xef00>
 25c:	f0f0f193          	andi	gp,ra,-241
 260:	00010eb7          	lui	t4,0x10
 264:	f01e8e9b          	addiw	t4,t4,-255
 268:	010e9e93          	slli	t4,t4,0x10
 26c:	f00e8e93          	addi	t4,t4,-256 # ff00 <begin_signature+0xef00>
 270:	00200e13          	li	t3,2
 274:	1dd19863          	bne	gp,t4,444 <fail>

0000000000000278 <test_3>:
 278:	0ff010b7          	lui	ra,0xff01
 27c:	ff00809b          	addiw	ra,ra,-16
 280:	0f00f193          	andi	gp,ra,240
 284:	0f000e93          	li	t4,240
 288:	00300e13          	li	t3,3
 28c:	1bd19c63          	bne	gp,t4,444 <fail>

0000000000000290 <test_4>:
 290:	00ff00b7          	lui	ra,0xff0
 294:	0ff0809b          	addiw	ra,ra,255
 298:	70f0f193          	andi	gp,ra,1807
 29c:	00f00e93          	li	t4,15
 2a0:	00400e13          	li	t3,4
 2a4:	1bd19063          	bne	gp,t4,444 <fail>

00000000000002a8 <test_5>:
 2a8:	000f00b7          	lui	ra,0xf0
 2ac:	0ff0809b          	addiw	ra,ra,255
 2b0:	00c09093          	slli	ra,ra,0xc
 2b4:	00f08093          	addi	ra,ra,15 # f000f <begin_signature+0xef00f>
 2b8:	0f00f193          	andi	gp,ra,240
 2bc:	00000e93          	li	t4,0
 2c0:	00500e13          	li	t3,5
 2c4:	19d19063          	bne	gp,t4,444 <fail>

00000000000002c8 <test_6>:
 2c8:	000100b7          	lui	ra,0x10
 2cc:	f010809b          	addiw	ra,ra,-255
 2d0:	01009093          	slli	ra,ra,0x10
 2d4:	f0008093          	addi	ra,ra,-256 # ff00 <begin_signature+0xef00>
 2d8:	0f00f093          	andi	ra,ra,240
 2dc:	00000e93          	li	t4,0
 2e0:	00600e13          	li	t3,6
 2e4:	17d09063          	bne	ra,t4,444 <fail>

00000000000002e8 <test_7>:
 2e8:	00000213          	li	tp,0
 2ec:	0ff010b7          	lui	ra,0xff01
 2f0:	ff00809b          	addiw	ra,ra,-16
 2f4:	70f0f193          	andi	gp,ra,1807
 2f8:	00018313          	mv	t1,gp
 2fc:	00120213          	addi	tp,tp,1 # 1 <tvec_user-0xff>
 300:	00200293          	li	t0,2
 304:	fe5214e3          	bne	tp,t0,2ec <test_7+0x4>
 308:	70000e93          	li	t4,1792
 30c:	00700e13          	li	t3,7
 310:	13d31a63          	bne	t1,t4,444 <fail>

0000000000000314 <test_8>:
 314:	00000213          	li	tp,0
 318:	00ff00b7          	lui	ra,0xff0
 31c:	0ff0809b          	addiw	ra,ra,255
 320:	0f00f193          	andi	gp,ra,240
 324:	00000013          	nop
 328:	00018313          	mv	t1,gp
 32c:	00120213          	addi	tp,tp,1 # 1 <tvec_user-0xff>
 330:	00200293          	li	t0,2
 334:	fe5212e3          	bne	tp,t0,318 <test_8+0x4>
 338:	0f000e93          	li	t4,240
 33c:	00800e13          	li	t3,8
 340:	11d31263          	bne	t1,t4,444 <fail>

0000000000000344 <test_9>:
 344:	00000213          	li	tp,0
 348:	000f00b7          	lui	ra,0xf0
 34c:	0ff0809b          	addiw	ra,ra,255
 350:	00c09093          	slli	ra,ra,0xc
 354:	00f08093          	addi	ra,ra,15 # f000f <begin_signature+0xef00f>
 358:	f0f0f193          	andi	gp,ra,-241
 35c:	00000013          	nop
 360:	00000013          	nop
 364:	00018313          	mv	t1,gp
 368:	00120213          	addi	tp,tp,1 # 1 <tvec_user-0xff>
 36c:	00200293          	li	t0,2
 370:	fc521ce3          	bne	tp,t0,348 <test_9+0x4>
 374:	000f0eb7          	lui	t4,0xf0
 378:	0ffe8e9b          	addiw	t4,t4,255
 37c:	00ce9e93          	slli	t4,t4,0xc
 380:	00fe8e93          	addi	t4,t4,15 # f000f <begin_signature+0xef00f>
 384:	00900e13          	li	t3,9
 388:	0bd31e63          	bne	t1,t4,444 <fail>

000000000000038c <test_10>:
 38c:	00000213          	li	tp,0
 390:	0ff010b7          	lui	ra,0xff01
 394:	ff00809b          	addiw	ra,ra,-16
 398:	70f0f193          	andi	gp,ra,1807
 39c:	00120213          	addi	tp,tp,1 # 1 <tvec_user-0xff>
 3a0:	00200293          	li	t0,2
 3a4:	fe5216e3          	bne	tp,t0,390 <test_10+0x4>
 3a8:	70000e93          	li	t4,1792
 3ac:	00a00e13          	li	t3,10
 3b0:	09d19a63          	bne	gp,t4,444 <fail>

00000000000003b4 <test_11>:
 3b4:	00000213          	li	tp,0
 3b8:	00ff00b7          	lui	ra,0xff0
 3bc:	0ff0809b          	addiw	ra,ra,255
 3c0:	00000013          	nop
 3c4:	0f00f193          	andi	gp,ra,240
 3c8:	00120213          	addi	tp,tp,1 # 1 <tvec_user-0xff>
 3cc:	00200293          	li	t0,2
 3d0:	fe5214e3          	bne	tp,t0,3b8 <test_11+0x4>
 3d4:	0f000e93          	li	t4,240
 3d8:	00b00e13          	li	t3,11
 3dc:	07d19463          	bne	gp,t4,444 <fail>

00000000000003e0 <test_12>:
 3e0:	00000213          	li	tp,0
 3e4:	000f00b7          	lui	ra,0xf0
 3e8:	0ff0809b          	addiw	ra,ra,255
 3ec:	00c09093          	slli	ra,ra,0xc
 3f0:	00f08093          	addi	ra,ra,15 # f000f <begin_signature+0xef00f>
 3f4:	00000013          	nop
 3f8:	00000013          	nop
 3fc:	70f0f193          	andi	gp,ra,1807
 400:	00120213          	addi	tp,tp,1 # 1 <tvec_user-0xff>
 404:	00200293          	li	t0,2
 408:	fc521ee3          	bne	tp,t0,3e4 <test_12+0x4>
 40c:	00f00e93          	li	t4,15
 410:	00c00e13          	li	t3,12
 414:	03d19863          	bne	gp,t4,444 <fail>

0000000000000418 <test_13>:
 418:	0f007093          	andi	ra,zero,240
 41c:	00000e93          	li	t4,0
 420:	00d00e13          	li	t3,13
 424:	03d09063          	bne	ra,t4,444 <fail>

0000000000000428 <test_14>:
 428:	00ff00b7          	lui	ra,0xff0
 42c:	0ff0809b          	addiw	ra,ra,255
 430:	70f0f013          	andi	zero,ra,1807
 434:	00000e93          	li	t4,0
 438:	00e00e13          	li	t3,14
 43c:	01d01463          	bne	zero,t4,444 <fail>
 440:	01c01c63          	bne	zero,t3,458 <pass>

0000000000000444 <fail>:
 444:	0ff0000f          	fence
 448:	000e0063          	beqz	t3,448 <fail+0x4>
 44c:	001e1e13          	slli	t3,t3,0x1
 450:	001e6e13          	ori	t3,t3,1
 454:	0100006f          	j	464 <ecall>

0000000000000458 <pass>:
 458:	0ff0000f          	fence
 45c:	00100e13          	li	t3,1
 460:	0040006f          	j	464 <ecall>

0000000000000464 <ecall>:
 464:	00000073          	ecall
 468:	ffdff06f          	j	464 <ecall>
