
rv64ui-p-ori:     file format elf64-littleriscv


Disassembly of section .text:

0000000000000100 <tvec_user>:
 100:	00000f17          	auipc	t5,0x0
 104:	358f0f13          	addi	t5,t5,856 # 458 <ecall>
 108:	34102ff3          	csrr	t6,mepc
 10c:	07ff0c63          	beq	t5,t6,184 <write_tohost>
 110:	00000f17          	auipc	t5,0x0
 114:	ef0f0f13          	addi	t5,t5,-272 # 0 <tvec_user-0x100>
 118:	020f1863          	bnez	t5,148 <mrts_routine>
 11c:	00000f17          	auipc	t5,0x0
 120:	ee4f0f13          	addi	t5,t5,-284 # 0 <tvec_user-0x100>
 124:	000f0463          	beqz	t5,12c <tvec_user+0x2c>
 128:	ed9ff06f          	j	0 <tvec_user-0x100>
 12c:	0540006f          	j	180 <other_exception>
 130:	00000013          	nop
 134:	00000013          	nop
 138:	00000013          	nop
 13c:	00000013          	nop

0000000000000140 <tvec_supervisor>:
 140:	34202f73          	csrr	t5,mcause
 144:	fa0f5ee3          	bgez	t5,100 <tvec_user>

0000000000000148 <mrts_routine>:
 148:	30500073          	mrts
 14c:	00000013          	nop
 150:	00000013          	nop
 154:	00000013          	nop
 158:	00000013          	nop
 15c:	00000013          	nop
 160:	00000013          	nop
 164:	00000013          	nop
 168:	00000013          	nop
 16c:	00000013          	nop
 170:	00000013          	nop
 174:	00000013          	nop
 178:	00000013          	nop
 17c:	00000013          	nop

0000000000000180 <other_exception>:
 180:	539e6e13          	ori	t3,t3,1337

0000000000000184 <write_tohost>:
 184:	780e1073          	csrw	mtohost,t3
 188:	ffdff06f          	j	184 <write_tohost>
 18c:	00000013          	nop
 190:	00000013          	nop
 194:	00000013          	nop
 198:	00000013          	nop
 19c:	00000013          	nop
 1a0:	00000013          	nop
 1a4:	00000013          	nop
 1a8:	00000013          	nop
 1ac:	00000013          	nop
 1b0:	00000013          	nop
 1b4:	00000013          	nop
 1b8:	00000013          	nop
 1bc:	00000013          	nop

00000000000001c0 <tvec_machine>:
 1c0:	00000f17          	auipc	t5,0x0
 1c4:	298f0f13          	addi	t5,t5,664 # 458 <ecall>
 1c8:	34102ff3          	csrr	t6,mepc
 1cc:	fbff0ce3          	beq	t5,t6,184 <write_tohost>
 1d0:	00000f17          	auipc	t5,0x0
 1d4:	e30f0f13          	addi	t5,t5,-464 # 0 <tvec_user-0x100>
 1d8:	000f0463          	beqz	t5,1e0 <tvec_machine+0x20>
 1dc:	e25ff06f          	j	0 <tvec_user-0x100>
 1e0:	fa1ff06f          	j	180 <other_exception>
 1e4:	00000013          	nop
 1e8:	00000013          	nop
 1ec:	00000013          	nop
 1f0:	00000013          	nop
 1f4:	00000013          	nop
 1f8:	00000013          	nop
 1fc:	00000013          	nop

0000000000000200 <_start>:
 200:	f1002573          	csrr	a0,mhartid
 204:	00051063          	bnez	a0,204 <_start+0x4>
 208:	f0002573          	csrr	a0,mcpuid
 20c:	00054863          	bltz	a0,21c <_start+0x1c>
 210:	0ff0000f          	fence
 214:	00100e13          	li	t3,1
 218:	2400006f          	j	458 <ecall>
 21c:	00000e13          	li	t3,0
 220:	00000297          	auipc	t0,0x0
 224:	de028293          	addi	t0,t0,-544 # 0 <tvec_user-0x100>
 228:	00028463          	beqz	t0,230 <_start+0x30>
 22c:	10129073          	csrw	stvec,t0
 230:	1f800293          	li	t0,504
 234:	3002b073          	csrc	mstatus,t0
 238:	00000297          	auipc	t0,0x0
 23c:	01428293          	addi	t0,t0,20 # 24c <test_2>
 240:	34129073          	csrw	mepc,t0
 244:	f1002573          	csrr	a0,mhartid
 248:	10000073          	eret

000000000000024c <test_2>:
 24c:	ff0100b7          	lui	ra,0xff010
 250:	f000809b          	addiw	ra,ra,-256
 254:	f0f0e193          	ori	gp,ra,-241
 258:	f0f00e93          	li	t4,-241
 25c:	00200e13          	li	t3,2
 260:	1dd19c63          	bne	gp,t4,438 <fail>

0000000000000264 <test_3>:
 264:	0ff010b7          	lui	ra,0xff01
 268:	ff00809b          	addiw	ra,ra,-16
 26c:	0f00e193          	ori	gp,ra,240
 270:	0ff01eb7          	lui	t4,0xff01
 274:	ff0e8e9b          	addiw	t4,t4,-16
 278:	00300e13          	li	t3,3
 27c:	1bd19e63          	bne	gp,t4,438 <fail>

0000000000000280 <test_4>:
 280:	00ff00b7          	lui	ra,0xff0
 284:	0ff0809b          	addiw	ra,ra,255
 288:	70f0e193          	ori	gp,ra,1807
 28c:	00ff0eb7          	lui	t4,0xff0
 290:	7ffe8e9b          	addiw	t4,t4,2047
 294:	00400e13          	li	t3,4
 298:	1bd19063          	bne	gp,t4,438 <fail>

000000000000029c <test_5>:
 29c:	f00ff0b7          	lui	ra,0xf00ff
 2a0:	00f0809b          	addiw	ra,ra,15
 2a4:	0f00e193          	ori	gp,ra,240
 2a8:	f00ffeb7          	lui	t4,0xf00ff
 2ac:	0ffe8e9b          	addiw	t4,t4,255
 2b0:	00500e13          	li	t3,5
 2b4:	19d19263          	bne	gp,t4,438 <fail>

00000000000002b8 <test_6>:
 2b8:	000100b7          	lui	ra,0x10
 2bc:	f010809b          	addiw	ra,ra,-255
 2c0:	01009093          	slli	ra,ra,0x10
 2c4:	f0008093          	addi	ra,ra,-256 # ff00 <begin_signature+0xef00>
 2c8:	0f00e093          	ori	ra,ra,240
 2cc:	00010eb7          	lui	t4,0x10
 2d0:	f01e8e9b          	addiw	t4,t4,-255
 2d4:	010e9e93          	slli	t4,t4,0x10
 2d8:	ff0e8e93          	addi	t4,t4,-16 # fff0 <begin_signature+0xeff0>
 2dc:	00600e13          	li	t3,6
 2e0:	15d09c63          	bne	ra,t4,438 <fail>

00000000000002e4 <test_7>:
 2e4:	00000213          	li	tp,0
 2e8:	0ff010b7          	lui	ra,0xff01
 2ec:	ff00809b          	addiw	ra,ra,-16
 2f0:	0f00e193          	ori	gp,ra,240
 2f4:	00018313          	mv	t1,gp
 2f8:	00120213          	addi	tp,tp,1 # 1 <tvec_user-0xff>
 2fc:	00200293          	li	t0,2
 300:	fe5214e3          	bne	tp,t0,2e8 <test_7+0x4>
 304:	0ff01eb7          	lui	t4,0xff01
 308:	ff0e8e9b          	addiw	t4,t4,-16
 30c:	00700e13          	li	t3,7
 310:	13d31463          	bne	t1,t4,438 <fail>

0000000000000314 <test_8>:
 314:	00000213          	li	tp,0
 318:	00ff00b7          	lui	ra,0xff0
 31c:	0ff0809b          	addiw	ra,ra,255
 320:	70f0e193          	ori	gp,ra,1807
 324:	00000013          	nop
 328:	00018313          	mv	t1,gp
 32c:	00120213          	addi	tp,tp,1 # 1 <tvec_user-0xff>
 330:	00200293          	li	t0,2
 334:	fe5212e3          	bne	tp,t0,318 <test_8+0x4>
 338:	00ff0eb7          	lui	t4,0xff0
 33c:	7ffe8e9b          	addiw	t4,t4,2047
 340:	00800e13          	li	t3,8
 344:	0fd31a63          	bne	t1,t4,438 <fail>

0000000000000348 <test_9>:
 348:	00000213          	li	tp,0
 34c:	f00ff0b7          	lui	ra,0xf00ff
 350:	00f0809b          	addiw	ra,ra,15
 354:	0f00e193          	ori	gp,ra,240
 358:	00000013          	nop
 35c:	00000013          	nop
 360:	00018313          	mv	t1,gp
 364:	00120213          	addi	tp,tp,1 # 1 <tvec_user-0xff>
 368:	00200293          	li	t0,2
 36c:	fe5210e3          	bne	tp,t0,34c <test_9+0x4>
 370:	f00ffeb7          	lui	t4,0xf00ff
 374:	0ffe8e9b          	addiw	t4,t4,255
 378:	00900e13          	li	t3,9
 37c:	0bd31e63          	bne	t1,t4,438 <fail>

0000000000000380 <test_10>:
 380:	00000213          	li	tp,0
 384:	0ff010b7          	lui	ra,0xff01
 388:	ff00809b          	addiw	ra,ra,-16
 38c:	0f00e193          	ori	gp,ra,240
 390:	00120213          	addi	tp,tp,1 # 1 <tvec_user-0xff>
 394:	00200293          	li	t0,2
 398:	fe5216e3          	bne	tp,t0,384 <test_10+0x4>
 39c:	0ff01eb7          	lui	t4,0xff01
 3a0:	ff0e8e9b          	addiw	t4,t4,-16
 3a4:	00a00e13          	li	t3,10
 3a8:	09d19863          	bne	gp,t4,438 <fail>

00000000000003ac <test_11>:
 3ac:	00000213          	li	tp,0
 3b0:	00ff00b7          	lui	ra,0xff0
 3b4:	0ff0809b          	addiw	ra,ra,255
 3b8:	00000013          	nop
 3bc:	f0f0e193          	ori	gp,ra,-241
 3c0:	00120213          	addi	tp,tp,1 # 1 <tvec_user-0xff>
 3c4:	00200293          	li	t0,2
 3c8:	fe5214e3          	bne	tp,t0,3b0 <test_11+0x4>
 3cc:	fff00e93          	li	t4,-1
 3d0:	00b00e13          	li	t3,11
 3d4:	07d19263          	bne	gp,t4,438 <fail>

00000000000003d8 <test_12>:
 3d8:	00000213          	li	tp,0
 3dc:	f00ff0b7          	lui	ra,0xf00ff
 3e0:	00f0809b          	addiw	ra,ra,15
 3e4:	00000013          	nop
 3e8:	00000013          	nop
 3ec:	0f00e193          	ori	gp,ra,240
 3f0:	00120213          	addi	tp,tp,1 # 1 <tvec_user-0xff>
 3f4:	00200293          	li	t0,2
 3f8:	fe5212e3          	bne	tp,t0,3dc <test_12+0x4>
 3fc:	f00ffeb7          	lui	t4,0xf00ff
 400:	0ffe8e9b          	addiw	t4,t4,255
 404:	00c00e13          	li	t3,12
 408:	03d19863          	bne	gp,t4,438 <fail>

000000000000040c <test_13>:
 40c:	0f006093          	ori	ra,zero,240
 410:	0f000e93          	li	t4,240
 414:	00d00e13          	li	t3,13
 418:	03d09063          	bne	ra,t4,438 <fail>

000000000000041c <test_14>:
 41c:	00ff00b7          	lui	ra,0xff0
 420:	0ff0809b          	addiw	ra,ra,255
 424:	70f0e013          	ori	zero,ra,1807
 428:	00000e93          	li	t4,0
 42c:	00e00e13          	li	t3,14
 430:	01d01463          	bne	zero,t4,438 <fail>
 434:	01c01c63          	bne	zero,t3,44c <pass>

0000000000000438 <fail>:
 438:	0ff0000f          	fence
 43c:	000e0063          	beqz	t3,43c <fail+0x4>
 440:	001e1e13          	slli	t3,t3,0x1
 444:	001e6e13          	ori	t3,t3,1
 448:	0100006f          	j	458 <ecall>

000000000000044c <pass>:
 44c:	0ff0000f          	fence
 450:	00100e13          	li	t3,1
 454:	0040006f          	j	458 <ecall>

0000000000000458 <ecall>:
 458:	00000073          	ecall
 45c:	ffdff06f          	j	458 <ecall>
