
rv64um-p-mulh:     file format elf64-littleriscv


Disassembly of section .text.init:

0000000000000000 <_start>:
   0:	0480006f          	j	48 <reset_vector>

0000000000000004 <trap_vector>:
   4:	34202f73          	csrr	t5,mcause
   8:	00800f93          	li	t6,8
   c:	03ff0a63          	beq	t5,t6,40 <write_tohost>
  10:	00900f93          	li	t6,9
  14:	03ff0663          	beq	t5,t6,40 <write_tohost>
  18:	00b00f93          	li	t6,11
  1c:	03ff0263          	beq	t5,t6,40 <write_tohost>
  20:	00000f17          	auipc	t5,0x0
  24:	fe0f0f13          	addi	t5,t5,-32 # 0 <_start>
  28:	000f0463          	beqz	t5,30 <trap_vector+0x2c>
  2c:	000f0067          	jr	t5
  30:	34202f73          	csrr	t5,mcause
  34:	000f5463          	bgez	t5,3c <handle_exception>
  38:	0040006f          	j	3c <handle_exception>

000000000000003c <handle_exception>:
  3c:	5391e193          	ori	gp,gp,1337

0000000000000040 <write_tohost>:
  40:	9f019073          	csrw	0x9f0,gp
  44:	ffdff06f          	j	40 <write_tohost>

0000000000000048 <reset_vector>:
  48:	f1402573          	csrr	a0,mhartid
  4c:	00051063          	bnez	a0,4c <reset_vector+0x4>
  50:	00000297          	auipc	t0,0x0
  54:	01028293          	addi	t0,t0,16 # 60 <reset_vector+0x18>
  58:	30529073          	csrw	mtvec,t0
  5c:	18005073          	csrwi	satp,0
  60:	00000297          	auipc	t0,0x0
  64:	01c28293          	addi	t0,t0,28 # 7c <reset_vector+0x34>
  68:	30529073          	csrw	mtvec,t0
  6c:	fff00293          	li	t0,-1
  70:	3b029073          	csrw	pmpaddr0,t0
  74:	01f00293          	li	t0,31
  78:	3a029073          	csrw	pmpcfg0,t0
  7c:	00000297          	auipc	t0,0x0
  80:	01828293          	addi	t0,t0,24 # 94 <reset_vector+0x4c>
  84:	30529073          	csrw	mtvec,t0
  88:	30205073          	csrwi	medeleg,0
  8c:	30305073          	csrwi	mideleg,0
  90:	30405073          	csrwi	mie,0
  94:	00000193          	li	gp,0
  98:	00000297          	auipc	t0,0x0
  9c:	f6c28293          	addi	t0,t0,-148 # 4 <trap_vector>
  a0:	30529073          	csrw	mtvec,t0
  a4:	00100513          	li	a0,1
  a8:	01f51513          	slli	a0,a0,0x1f
  ac:	00055863          	bgez	a0,bc <reset_vector+0x74>
  b0:	0ff0000f          	fence
  b4:	00100193          	li	gp,1
  b8:	00000073          	ecall
  bc:	00000297          	auipc	t0,0x0
  c0:	f4428293          	addi	t0,t0,-188 # 0 <_start>
  c4:	00028e63          	beqz	t0,e0 <reset_vector+0x98>
  c8:	10529073          	csrw	stvec,t0
  cc:	0000b2b7          	lui	t0,0xb
  d0:	1092829b          	addiw	t0,t0,265
  d4:	30229073          	csrw	medeleg,t0
  d8:	30202373          	csrr	t1,medeleg
  dc:	f66290e3          	bne	t0,t1,3c <handle_exception>
  e0:	30005073          	csrwi	mstatus,0
  e4:	00000297          	auipc	t0,0x0
  e8:	01428293          	addi	t0,t0,20 # f8 <test_2>
  ec:	34129073          	csrw	mepc,t0
  f0:	f1402573          	csrr	a0,mhartid
  f4:	30200073          	mret

00000000000000f8 <test_2>:
  f8:	00000093          	li	ra,0
  fc:	00000113          	li	sp,0
 100:	02209f33          	mulh	t5,ra,sp
 104:	00000e93          	li	t4,0
 108:	00200193          	li	gp,2
 10c:	47df1063          	bne	t5,t4,56c <fail>

0000000000000110 <test_3>:
 110:	00100093          	li	ra,1
 114:	00100113          	li	sp,1
 118:	02209f33          	mulh	t5,ra,sp
 11c:	00000e93          	li	t4,0
 120:	00300193          	li	gp,3
 124:	45df1463          	bne	t5,t4,56c <fail>

0000000000000128 <test_4>:
 128:	00300093          	li	ra,3
 12c:	00700113          	li	sp,7
 130:	02209f33          	mulh	t5,ra,sp
 134:	00000e93          	li	t4,0
 138:	00400193          	li	gp,4
 13c:	43df1863          	bne	t5,t4,56c <fail>

0000000000000140 <test_5>:
 140:	00000093          	li	ra,0
 144:	ffff8137          	lui	sp,0xffff8
 148:	02209f33          	mulh	t5,ra,sp
 14c:	00000e93          	li	t4,0
 150:	00500193          	li	gp,5
 154:	41df1c63          	bne	t5,t4,56c <fail>

0000000000000158 <test_6>:
 158:	800000b7          	lui	ra,0x80000
 15c:	00000113          	li	sp,0
 160:	02209f33          	mulh	t5,ra,sp
 164:	00000e93          	li	t4,0
 168:	00600193          	li	gp,6
 16c:	41df1063          	bne	t5,t4,56c <fail>

0000000000000170 <test_7>:
 170:	800000b7          	lui	ra,0x80000
 174:	ffff8137          	lui	sp,0xffff8
 178:	02209f33          	mulh	t5,ra,sp
 17c:	00000e93          	li	t4,0
 180:	00700193          	li	gp,7
 184:	3fdf1463          	bne	t5,t4,56c <fail>

0000000000000188 <test_8>:
 188:	00d0009b          	addiw	ra,zero,13
 18c:	02009093          	slli	ra,ra,0x20
 190:	00b0011b          	addiw	sp,zero,11
 194:	02011113          	slli	sp,sp,0x20
 198:	022090b3          	mulh	ra,ra,sp
 19c:	08f00e93          	li	t4,143
 1a0:	00800193          	li	gp,8
 1a4:	3dd09463          	bne	ra,t4,56c <fail>

00000000000001a8 <test_9>:
 1a8:	0070009b          	addiw	ra,zero,7
 1ac:	02109093          	slli	ra,ra,0x21
 1b0:	00b0011b          	addiw	sp,zero,11
 1b4:	02011113          	slli	sp,sp,0x20
 1b8:	02209133          	mulh	sp,ra,sp
 1bc:	09a00e93          	li	t4,154
 1c0:	00900193          	li	gp,9
 1c4:	3bd11463          	bne	sp,t4,56c <fail>

00000000000001c8 <test_10>:
 1c8:	00d0009b          	addiw	ra,zero,13
 1cc:	02009093          	slli	ra,ra,0x20
 1d0:	021090b3          	mulh	ra,ra,ra
 1d4:	0a900e93          	li	t4,169
 1d8:	00a00193          	li	gp,10
 1dc:	39d09863          	bne	ra,t4,56c <fail>

00000000000001e0 <test_11>:
 1e0:	00000213          	li	tp,0
 1e4:	00d0009b          	addiw	ra,zero,13
 1e8:	02009093          	slli	ra,ra,0x20
 1ec:	00b0011b          	addiw	sp,zero,11
 1f0:	02011113          	slli	sp,sp,0x20
 1f4:	02209f33          	mulh	t5,ra,sp
 1f8:	000f0313          	mv	t1,t5
 1fc:	00120213          	addi	tp,tp,1 # 1 <_start+0x1>
 200:	00200293          	li	t0,2
 204:	fe5210e3          	bne	tp,t0,1e4 <test_11+0x4>
 208:	08f00e93          	li	t4,143
 20c:	00b00193          	li	gp,11
 210:	35d31e63          	bne	t1,t4,56c <fail>

0000000000000214 <test_12>:
 214:	00000213          	li	tp,0
 218:	0070009b          	addiw	ra,zero,7
 21c:	02109093          	slli	ra,ra,0x21
 220:	00b0011b          	addiw	sp,zero,11
 224:	02011113          	slli	sp,sp,0x20
 228:	02209f33          	mulh	t5,ra,sp
 22c:	00000013          	nop
 230:	000f0313          	mv	t1,t5
 234:	00120213          	addi	tp,tp,1 # 1 <_start+0x1>
 238:	00200293          	li	t0,2
 23c:	fc521ee3          	bne	tp,t0,218 <test_12+0x4>
 240:	09a00e93          	li	t4,154
 244:	00c00193          	li	gp,12
 248:	33d31263          	bne	t1,t4,56c <fail>

000000000000024c <test_13>:
 24c:	00000213          	li	tp,0
 250:	00f0009b          	addiw	ra,zero,15
 254:	02009093          	slli	ra,ra,0x20
 258:	00b0011b          	addiw	sp,zero,11
 25c:	02011113          	slli	sp,sp,0x20
 260:	02209f33          	mulh	t5,ra,sp
 264:	00000013          	nop
 268:	00000013          	nop
 26c:	000f0313          	mv	t1,t5
 270:	00120213          	addi	tp,tp,1 # 1 <_start+0x1>
 274:	00200293          	li	t0,2
 278:	fc521ce3          	bne	tp,t0,250 <test_13+0x4>
 27c:	0a500e93          	li	t4,165
 280:	00d00193          	li	gp,13
 284:	2fd31463          	bne	t1,t4,56c <fail>

0000000000000288 <test_14>:
 288:	00000213          	li	tp,0
 28c:	00d0009b          	addiw	ra,zero,13
 290:	02009093          	slli	ra,ra,0x20
 294:	00b0011b          	addiw	sp,zero,11
 298:	02011113          	slli	sp,sp,0x20
 29c:	02209f33          	mulh	t5,ra,sp
 2a0:	00120213          	addi	tp,tp,1 # 1 <_start+0x1>
 2a4:	00200293          	li	t0,2
 2a8:	fe5212e3          	bne	tp,t0,28c <test_14+0x4>
 2ac:	08f00e93          	li	t4,143
 2b0:	00e00193          	li	gp,14
 2b4:	2bdf1c63          	bne	t5,t4,56c <fail>

00000000000002b8 <test_15>:
 2b8:	00000213          	li	tp,0
 2bc:	0070009b          	addiw	ra,zero,7
 2c0:	02109093          	slli	ra,ra,0x21
 2c4:	00b0011b          	addiw	sp,zero,11
 2c8:	02011113          	slli	sp,sp,0x20
 2cc:	00000013          	nop
 2d0:	02209f33          	mulh	t5,ra,sp
 2d4:	00120213          	addi	tp,tp,1 # 1 <_start+0x1>
 2d8:	00200293          	li	t0,2
 2dc:	fe5210e3          	bne	tp,t0,2bc <test_15+0x4>
 2e0:	09a00e93          	li	t4,154
 2e4:	00f00193          	li	gp,15
 2e8:	29df1263          	bne	t5,t4,56c <fail>

00000000000002ec <test_16>:
 2ec:	00000213          	li	tp,0
 2f0:	00f0009b          	addiw	ra,zero,15
 2f4:	02009093          	slli	ra,ra,0x20
 2f8:	00b0011b          	addiw	sp,zero,11
 2fc:	02011113          	slli	sp,sp,0x20
 300:	00000013          	nop
 304:	00000013          	nop
 308:	02209f33          	mulh	t5,ra,sp
 30c:	00120213          	addi	tp,tp,1 # 1 <_start+0x1>
 310:	00200293          	li	t0,2
 314:	fc521ee3          	bne	tp,t0,2f0 <test_16+0x4>
 318:	0a500e93          	li	t4,165
 31c:	01000193          	li	gp,16
 320:	25df1663          	bne	t5,t4,56c <fail>

0000000000000324 <test_17>:
 324:	00000213          	li	tp,0
 328:	00d0009b          	addiw	ra,zero,13
 32c:	02009093          	slli	ra,ra,0x20
 330:	00000013          	nop
 334:	00b0011b          	addiw	sp,zero,11
 338:	02011113          	slli	sp,sp,0x20
 33c:	02209f33          	mulh	t5,ra,sp
 340:	00120213          	addi	tp,tp,1 # 1 <_start+0x1>
 344:	00200293          	li	t0,2
 348:	fe5210e3          	bne	tp,t0,328 <test_17+0x4>
 34c:	08f00e93          	li	t4,143
 350:	01100193          	li	gp,17
 354:	21df1c63          	bne	t5,t4,56c <fail>

0000000000000358 <test_18>:
 358:	00000213          	li	tp,0
 35c:	0070009b          	addiw	ra,zero,7
 360:	02109093          	slli	ra,ra,0x21
 364:	00000013          	nop
 368:	00b0011b          	addiw	sp,zero,11
 36c:	02011113          	slli	sp,sp,0x20
 370:	00000013          	nop
 374:	02209f33          	mulh	t5,ra,sp
 378:	00120213          	addi	tp,tp,1 # 1 <_start+0x1>
 37c:	00200293          	li	t0,2
 380:	fc521ee3          	bne	tp,t0,35c <test_18+0x4>
 384:	09a00e93          	li	t4,154
 388:	01200193          	li	gp,18
 38c:	1fdf1063          	bne	t5,t4,56c <fail>

0000000000000390 <test_19>:
 390:	00000213          	li	tp,0
 394:	00f0009b          	addiw	ra,zero,15
 398:	02009093          	slli	ra,ra,0x20
 39c:	00000013          	nop
 3a0:	00000013          	nop
 3a4:	00b0011b          	addiw	sp,zero,11
 3a8:	02011113          	slli	sp,sp,0x20
 3ac:	02209f33          	mulh	t5,ra,sp
 3b0:	00120213          	addi	tp,tp,1 # 1 <_start+0x1>
 3b4:	00200293          	li	t0,2
 3b8:	fc521ee3          	bne	tp,t0,394 <test_19+0x4>
 3bc:	0a500e93          	li	t4,165
 3c0:	01300193          	li	gp,19
 3c4:	1bdf1463          	bne	t5,t4,56c <fail>

00000000000003c8 <test_20>:
 3c8:	00000213          	li	tp,0
 3cc:	00b0011b          	addiw	sp,zero,11
 3d0:	02011113          	slli	sp,sp,0x20
 3d4:	00d0009b          	addiw	ra,zero,13
 3d8:	02009093          	slli	ra,ra,0x20
 3dc:	02209f33          	mulh	t5,ra,sp
 3e0:	00120213          	addi	tp,tp,1 # 1 <_start+0x1>
 3e4:	00200293          	li	t0,2
 3e8:	fe5212e3          	bne	tp,t0,3cc <test_20+0x4>
 3ec:	08f00e93          	li	t4,143
 3f0:	01400193          	li	gp,20
 3f4:	17df1c63          	bne	t5,t4,56c <fail>

00000000000003f8 <test_21>:
 3f8:	00000213          	li	tp,0
 3fc:	00b0011b          	addiw	sp,zero,11
 400:	02011113          	slli	sp,sp,0x20
 404:	0070009b          	addiw	ra,zero,7
 408:	02109093          	slli	ra,ra,0x21
 40c:	00000013          	nop
 410:	02209f33          	mulh	t5,ra,sp
 414:	00120213          	addi	tp,tp,1 # 1 <_start+0x1>
 418:	00200293          	li	t0,2
 41c:	fe5210e3          	bne	tp,t0,3fc <test_21+0x4>
 420:	09a00e93          	li	t4,154
 424:	01500193          	li	gp,21
 428:	15df1263          	bne	t5,t4,56c <fail>

000000000000042c <test_22>:
 42c:	00000213          	li	tp,0
 430:	00b0011b          	addiw	sp,zero,11
 434:	02011113          	slli	sp,sp,0x20
 438:	00f0009b          	addiw	ra,zero,15
 43c:	02009093          	slli	ra,ra,0x20
 440:	00000013          	nop
 444:	00000013          	nop
 448:	02209f33          	mulh	t5,ra,sp
 44c:	00120213          	addi	tp,tp,1 # 1 <_start+0x1>
 450:	00200293          	li	t0,2
 454:	fc521ee3          	bne	tp,t0,430 <test_22+0x4>
 458:	0a500e93          	li	t4,165
 45c:	01600193          	li	gp,22
 460:	11df1663          	bne	t5,t4,56c <fail>

0000000000000464 <test_23>:
 464:	00000213          	li	tp,0
 468:	00b0011b          	addiw	sp,zero,11
 46c:	02011113          	slli	sp,sp,0x20
 470:	00000013          	nop
 474:	00d0009b          	addiw	ra,zero,13
 478:	02009093          	slli	ra,ra,0x20
 47c:	02209f33          	mulh	t5,ra,sp
 480:	00120213          	addi	tp,tp,1 # 1 <_start+0x1>
 484:	00200293          	li	t0,2
 488:	fe5210e3          	bne	tp,t0,468 <test_23+0x4>
 48c:	08f00e93          	li	t4,143
 490:	01700193          	li	gp,23
 494:	0ddf1c63          	bne	t5,t4,56c <fail>

0000000000000498 <test_24>:
 498:	00000213          	li	tp,0
 49c:	00b0011b          	addiw	sp,zero,11
 4a0:	02011113          	slli	sp,sp,0x20
 4a4:	00000013          	nop
 4a8:	0070009b          	addiw	ra,zero,7
 4ac:	02109093          	slli	ra,ra,0x21
 4b0:	00000013          	nop
 4b4:	02209f33          	mulh	t5,ra,sp
 4b8:	00120213          	addi	tp,tp,1 # 1 <_start+0x1>
 4bc:	00200293          	li	t0,2
 4c0:	fc521ee3          	bne	tp,t0,49c <test_24+0x4>
 4c4:	09a00e93          	li	t4,154
 4c8:	01800193          	li	gp,24
 4cc:	0bdf1063          	bne	t5,t4,56c <fail>

00000000000004d0 <test_25>:
 4d0:	00000213          	li	tp,0
 4d4:	00b0011b          	addiw	sp,zero,11
 4d8:	02011113          	slli	sp,sp,0x20
 4dc:	00000013          	nop
 4e0:	00000013          	nop
 4e4:	00f0009b          	addiw	ra,zero,15
 4e8:	02009093          	slli	ra,ra,0x20
 4ec:	02209f33          	mulh	t5,ra,sp
 4f0:	00120213          	addi	tp,tp,1 # 1 <_start+0x1>
 4f4:	00200293          	li	t0,2
 4f8:	fc521ee3          	bne	tp,t0,4d4 <test_25+0x4>
 4fc:	0a500e93          	li	t4,165
 500:	01900193          	li	gp,25
 504:	07df1463          	bne	t5,t4,56c <fail>

0000000000000508 <test_26>:
 508:	01f0009b          	addiw	ra,zero,31
 50c:	02009093          	slli	ra,ra,0x20
 510:	02101133          	mulh	sp,zero,ra
 514:	00000e93          	li	t4,0
 518:	01a00193          	li	gp,26
 51c:	05d11863          	bne	sp,t4,56c <fail>

0000000000000520 <test_27>:
 520:	0010009b          	addiw	ra,zero,1
 524:	02509093          	slli	ra,ra,0x25
 528:	02009133          	mulh	sp,ra,zero
 52c:	00000e93          	li	t4,0
 530:	01b00193          	li	gp,27
 534:	03d11c63          	bne	sp,t4,56c <fail>

0000000000000538 <test_28>:
 538:	020010b3          	mulh	ra,zero,zero
 53c:	00000e93          	li	t4,0
 540:	01c00193          	li	gp,28
 544:	03d09463          	bne	ra,t4,56c <fail>

0000000000000548 <test_29>:
 548:	0210009b          	addiw	ra,zero,33
 54c:	02009093          	slli	ra,ra,0x20
 550:	0110011b          	addiw	sp,zero,17
 554:	02111113          	slli	sp,sp,0x21
 558:	02209033          	mulh	zero,ra,sp
 55c:	00000e93          	li	t4,0
 560:	01d00193          	li	gp,29
 564:	01d01463          	bne	zero,t4,56c <fail>
 568:	00301c63          	bne	zero,gp,580 <pass>

000000000000056c <fail>:
 56c:	0ff0000f          	fence
 570:	00018063          	beqz	gp,570 <fail+0x4>
 574:	00119193          	slli	gp,gp,0x1
 578:	0011e193          	ori	gp,gp,1
 57c:	00000073          	ecall

0000000000000580 <pass>:
 580:	0ff0000f          	fence
 584:	00100193          	li	gp,1
 588:	00000073          	ecall
 58c:	c0001073          	unimp
 590:	0000                	unimp
 592:	0000                	unimp
 594:	0000                	unimp
 596:	0000                	unimp
 598:	0000                	unimp
 59a:	0000                	unimp
 59c:	0000                	unimp
 59e:	0000                	unimp
 5a0:	0000                	unimp
 5a2:	0000                	unimp
 5a4:	0000                	unimp
 5a6:	0000                	unimp
 5a8:	0000                	unimp
 5aa:	0000                	unimp
 5ac:	0000                	unimp
 5ae:	0000                	unimp
 5b0:	0000                	unimp
 5b2:	0000                	unimp
 5b4:	0000                	unimp
 5b6:	0000                	unimp
 5b8:	0000                	unimp
 5ba:	0000                	unimp
 5bc:	0000                	unimp
 5be:	0000                	unimp
 5c0:	0000                	unimp
 5c2:	0000                	unimp
