
rv64ui-p-bgeu:     file format elf64-littleriscv


Disassembly of section .text.init:

0000000000000000 <_start>:
   0:	0480006f          	j	48 <reset_vector>

0000000000000004 <trap_vector>:
   4:	34202f73          	csrr	t5,mcause
   8:	00800f93          	li	t6,8
   c:	03ff0a63          	beq	t5,t6,40 <write_tohost>
  10:	00900f93          	li	t6,9
  14:	03ff0663          	beq	t5,t6,40 <write_tohost>
  18:	00b00f93          	li	t6,11
  1c:	03ff0263          	beq	t5,t6,40 <write_tohost>
  20:	00000f17          	auipc	t5,0x0
  24:	fe0f0f13          	addi	t5,t5,-32 # 0 <_start>
  28:	000f0463          	beqz	t5,30 <trap_vector+0x2c>
  2c:	000f0067          	jr	t5
  30:	34202f73          	csrr	t5,mcause
  34:	000f5463          	bgez	t5,3c <handle_exception>
  38:	0040006f          	j	3c <handle_exception>

000000000000003c <handle_exception>:
  3c:	5391e193          	ori	gp,gp,1337

0000000000000040 <write_tohost>:
  40:	9f019073          	csrw	0x9f0,gp
  44:	ffdff06f          	j	40 <write_tohost>

0000000000000048 <reset_vector>:
  48:	f1402573          	csrr	a0,mhartid
  4c:	00051063          	bnez	a0,4c <reset_vector+0x4>
  50:	00000297          	auipc	t0,0x0
  54:	01028293          	addi	t0,t0,16 # 60 <reset_vector+0x18>
  58:	30529073          	csrw	mtvec,t0
  5c:	18005073          	csrwi	satp,0
  60:	00000297          	auipc	t0,0x0
  64:	01c28293          	addi	t0,t0,28 # 7c <reset_vector+0x34>
  68:	30529073          	csrw	mtvec,t0
  6c:	fff00293          	li	t0,-1
  70:	3b029073          	csrw	pmpaddr0,t0
  74:	01f00293          	li	t0,31
  78:	3a029073          	csrw	pmpcfg0,t0
  7c:	00000297          	auipc	t0,0x0
  80:	01828293          	addi	t0,t0,24 # 94 <reset_vector+0x4c>
  84:	30529073          	csrw	mtvec,t0
  88:	30205073          	csrwi	medeleg,0
  8c:	30305073          	csrwi	mideleg,0
  90:	30405073          	csrwi	mie,0
  94:	00000193          	li	gp,0
  98:	00000297          	auipc	t0,0x0
  9c:	f6c28293          	addi	t0,t0,-148 # 4 <trap_vector>
  a0:	30529073          	csrw	mtvec,t0
  a4:	00100513          	li	a0,1
  a8:	01f51513          	slli	a0,a0,0x1f
  ac:	00055863          	bgez	a0,bc <reset_vector+0x74>
  b0:	0ff0000f          	fence
  b4:	00100193          	li	gp,1
  b8:	00000073          	ecall
  bc:	00000297          	auipc	t0,0x0
  c0:	f4428293          	addi	t0,t0,-188 # 0 <_start>
  c4:	00028e63          	beqz	t0,e0 <reset_vector+0x98>
  c8:	10529073          	csrw	stvec,t0
  cc:	0000b2b7          	lui	t0,0xb
  d0:	1092829b          	addiw	t0,t0,265
  d4:	30229073          	csrw	medeleg,t0
  d8:	30202373          	csrr	t1,medeleg
  dc:	f66290e3          	bne	t0,t1,3c <handle_exception>
  e0:	30005073          	csrwi	mstatus,0
  e4:	00000297          	auipc	t0,0x0
  e8:	01428293          	addi	t0,t0,20 # f8 <test_2>
  ec:	34129073          	csrw	mepc,t0
  f0:	f1402573          	csrr	a0,mhartid
  f4:	30200073          	mret

00000000000000f8 <test_2>:
  f8:	00200193          	li	gp,2
  fc:	00000093          	li	ra,0
 100:	00000113          	li	sp,0
 104:	0020f663          	bgeu	ra,sp,110 <test_2+0x18>
 108:	3e301463          	bne	zero,gp,4f0 <fail>
 10c:	00301663          	bne	zero,gp,118 <test_3>
 110:	fe20fee3          	bgeu	ra,sp,10c <test_2+0x14>
 114:	3c301e63          	bne	zero,gp,4f0 <fail>

0000000000000118 <test_3>:
 118:	00300193          	li	gp,3
 11c:	00100093          	li	ra,1
 120:	00100113          	li	sp,1
 124:	0020f663          	bgeu	ra,sp,130 <test_3+0x18>
 128:	3c301463          	bne	zero,gp,4f0 <fail>
 12c:	00301663          	bne	zero,gp,138 <test_4>
 130:	fe20fee3          	bgeu	ra,sp,12c <test_3+0x14>
 134:	3a301e63          	bne	zero,gp,4f0 <fail>

0000000000000138 <test_4>:
 138:	00400193          	li	gp,4
 13c:	0010009b          	addiw	ra,zero,1
 140:	02009093          	slli	ra,ra,0x20
 144:	fff08093          	addi	ra,ra,-1
 148:	0010011b          	addiw	sp,zero,1
 14c:	02011113          	slli	sp,sp,0x20
 150:	fff10113          	addi	sp,sp,-1
 154:	0020f663          	bgeu	ra,sp,160 <test_4+0x28>
 158:	38301c63          	bne	zero,gp,4f0 <fail>
 15c:	00301663          	bne	zero,gp,168 <test_5>
 160:	fe20fee3          	bgeu	ra,sp,15c <test_4+0x24>
 164:	38301663          	bne	zero,gp,4f0 <fail>

0000000000000168 <test_5>:
 168:	00500193          	li	gp,5
 16c:	00100093          	li	ra,1
 170:	00000113          	li	sp,0
 174:	0020f663          	bgeu	ra,sp,180 <test_5+0x18>
 178:	36301c63          	bne	zero,gp,4f0 <fail>
 17c:	00301663          	bne	zero,gp,188 <test_6>
 180:	fe20fee3          	bgeu	ra,sp,17c <test_5+0x14>
 184:	36301663          	bne	zero,gp,4f0 <fail>

0000000000000188 <test_6>:
 188:	00600193          	li	gp,6
 18c:	0010009b          	addiw	ra,zero,1
 190:	02009093          	slli	ra,ra,0x20
 194:	fff08093          	addi	ra,ra,-1
 198:	0010011b          	addiw	sp,zero,1
 19c:	02011113          	slli	sp,sp,0x20
 1a0:	ffe10113          	addi	sp,sp,-2
 1a4:	0020f663          	bgeu	ra,sp,1b0 <test_6+0x28>
 1a8:	34301463          	bne	zero,gp,4f0 <fail>
 1ac:	00301663          	bne	zero,gp,1b8 <test_7>
 1b0:	fe20fee3          	bgeu	ra,sp,1ac <test_6+0x24>
 1b4:	32301e63          	bne	zero,gp,4f0 <fail>

00000000000001b8 <test_7>:
 1b8:	00700193          	li	gp,7
 1bc:	0010009b          	addiw	ra,zero,1
 1c0:	02009093          	slli	ra,ra,0x20
 1c4:	fff08093          	addi	ra,ra,-1
 1c8:	00000113          	li	sp,0
 1cc:	0020f663          	bgeu	ra,sp,1d8 <test_7+0x20>
 1d0:	32301063          	bne	zero,gp,4f0 <fail>
 1d4:	00301663          	bne	zero,gp,1e0 <test_8>
 1d8:	fe20fee3          	bgeu	ra,sp,1d4 <test_7+0x1c>
 1dc:	30301a63          	bne	zero,gp,4f0 <fail>

00000000000001e0 <test_8>:
 1e0:	00800193          	li	gp,8
 1e4:	00000093          	li	ra,0
 1e8:	00100113          	li	sp,1
 1ec:	0020f463          	bgeu	ra,sp,1f4 <test_8+0x14>
 1f0:	00301463          	bne	zero,gp,1f8 <test_8+0x18>
 1f4:	2e301e63          	bne	zero,gp,4f0 <fail>
 1f8:	fe20fee3          	bgeu	ra,sp,1f4 <test_8+0x14>

00000000000001fc <test_9>:
 1fc:	00900193          	li	gp,9
 200:	0010009b          	addiw	ra,zero,1
 204:	02009093          	slli	ra,ra,0x20
 208:	ffe08093          	addi	ra,ra,-2
 20c:	0010011b          	addiw	sp,zero,1
 210:	02011113          	slli	sp,sp,0x20
 214:	fff10113          	addi	sp,sp,-1
 218:	0020f463          	bgeu	ra,sp,220 <test_9+0x24>
 21c:	00301463          	bne	zero,gp,224 <test_9+0x28>
 220:	2c301863          	bne	zero,gp,4f0 <fail>
 224:	fe20fee3          	bgeu	ra,sp,220 <test_9+0x24>

0000000000000228 <test_10>:
 228:	00a00193          	li	gp,10
 22c:	00000093          	li	ra,0
 230:	0010011b          	addiw	sp,zero,1
 234:	02011113          	slli	sp,sp,0x20
 238:	fff10113          	addi	sp,sp,-1
 23c:	0020f463          	bgeu	ra,sp,244 <test_10+0x1c>
 240:	00301463          	bne	zero,gp,248 <test_10+0x20>
 244:	2a301663          	bne	zero,gp,4f0 <fail>
 248:	fe20fee3          	bgeu	ra,sp,244 <test_10+0x1c>

000000000000024c <test_11>:
 24c:	00b00193          	li	gp,11
 250:	800000b7          	lui	ra,0x80000
 254:	fff0809b          	addiw	ra,ra,-1
 258:	0010011b          	addiw	sp,zero,1
 25c:	01f11113          	slli	sp,sp,0x1f
 260:	0020f463          	bgeu	ra,sp,268 <test_11+0x1c>
 264:	00301463          	bne	zero,gp,26c <test_11+0x20>
 268:	28301463          	bne	zero,gp,4f0 <fail>
 26c:	fe20fee3          	bgeu	ra,sp,268 <test_11+0x1c>

0000000000000270 <test_12>:
 270:	00c00193          	li	gp,12
 274:	00000213          	li	tp,0
 278:	00f0009b          	addiw	ra,zero,15
 27c:	01c09093          	slli	ra,ra,0x1c
 280:	fff08093          	addi	ra,ra,-1 # ffffffff7fffffff <_end+0xffffffff7fffdfff>
 284:	00f0011b          	addiw	sp,zero,15
 288:	01c11113          	slli	sp,sp,0x1c
 28c:	2620f263          	bgeu	ra,sp,4f0 <fail>
 290:	00120213          	addi	tp,tp,1 # 1 <_start+0x1>
 294:	00200293          	li	t0,2
 298:	fe5210e3          	bne	tp,t0,278 <test_12+0x8>

000000000000029c <test_13>:
 29c:	00d00193          	li	gp,13
 2a0:	00000213          	li	tp,0
 2a4:	00f0009b          	addiw	ra,zero,15
 2a8:	01c09093          	slli	ra,ra,0x1c
 2ac:	fff08093          	addi	ra,ra,-1
 2b0:	00f0011b          	addiw	sp,zero,15
 2b4:	01c11113          	slli	sp,sp,0x1c
 2b8:	00000013          	nop
 2bc:	2220fa63          	bgeu	ra,sp,4f0 <fail>
 2c0:	00120213          	addi	tp,tp,1 # 1 <_start+0x1>
 2c4:	00200293          	li	t0,2
 2c8:	fc521ee3          	bne	tp,t0,2a4 <test_13+0x8>

00000000000002cc <test_14>:
 2cc:	00e00193          	li	gp,14
 2d0:	00000213          	li	tp,0
 2d4:	00f0009b          	addiw	ra,zero,15
 2d8:	01c09093          	slli	ra,ra,0x1c
 2dc:	fff08093          	addi	ra,ra,-1
 2e0:	00f0011b          	addiw	sp,zero,15
 2e4:	01c11113          	slli	sp,sp,0x1c
 2e8:	00000013          	nop
 2ec:	00000013          	nop
 2f0:	2020f063          	bgeu	ra,sp,4f0 <fail>
 2f4:	00120213          	addi	tp,tp,1 # 1 <_start+0x1>
 2f8:	00200293          	li	t0,2
 2fc:	fc521ce3          	bne	tp,t0,2d4 <test_14+0x8>

0000000000000300 <test_15>:
 300:	00f00193          	li	gp,15
 304:	00000213          	li	tp,0
 308:	00f0009b          	addiw	ra,zero,15
 30c:	01c09093          	slli	ra,ra,0x1c
 310:	fff08093          	addi	ra,ra,-1
 314:	00000013          	nop
 318:	00f0011b          	addiw	sp,zero,15
 31c:	01c11113          	slli	sp,sp,0x1c
 320:	1c20f863          	bgeu	ra,sp,4f0 <fail>
 324:	00120213          	addi	tp,tp,1 # 1 <_start+0x1>
 328:	00200293          	li	t0,2
 32c:	fc521ee3          	bne	tp,t0,308 <test_15+0x8>

0000000000000330 <test_16>:
 330:	01000193          	li	gp,16
 334:	00000213          	li	tp,0
 338:	00f0009b          	addiw	ra,zero,15
 33c:	01c09093          	slli	ra,ra,0x1c
 340:	fff08093          	addi	ra,ra,-1
 344:	00000013          	nop
 348:	00f0011b          	addiw	sp,zero,15
 34c:	01c11113          	slli	sp,sp,0x1c
 350:	00000013          	nop
 354:	1820fe63          	bgeu	ra,sp,4f0 <fail>
 358:	00120213          	addi	tp,tp,1 # 1 <_start+0x1>
 35c:	00200293          	li	t0,2
 360:	fc521ce3          	bne	tp,t0,338 <test_16+0x8>

0000000000000364 <test_17>:
 364:	01100193          	li	gp,17
 368:	00000213          	li	tp,0
 36c:	00f0009b          	addiw	ra,zero,15
 370:	01c09093          	slli	ra,ra,0x1c
 374:	fff08093          	addi	ra,ra,-1
 378:	00000013          	nop
 37c:	00000013          	nop
 380:	00f0011b          	addiw	sp,zero,15
 384:	01c11113          	slli	sp,sp,0x1c
 388:	1620f463          	bgeu	ra,sp,4f0 <fail>
 38c:	00120213          	addi	tp,tp,1 # 1 <_start+0x1>
 390:	00200293          	li	t0,2
 394:	fc521ce3          	bne	tp,t0,36c <test_17+0x8>

0000000000000398 <test_18>:
 398:	01200193          	li	gp,18
 39c:	00000213          	li	tp,0
 3a0:	00f0009b          	addiw	ra,zero,15
 3a4:	01c09093          	slli	ra,ra,0x1c
 3a8:	fff08093          	addi	ra,ra,-1
 3ac:	00f0011b          	addiw	sp,zero,15
 3b0:	01c11113          	slli	sp,sp,0x1c
 3b4:	1220fe63          	bgeu	ra,sp,4f0 <fail>
 3b8:	00120213          	addi	tp,tp,1 # 1 <_start+0x1>
 3bc:	00200293          	li	t0,2
 3c0:	fe5210e3          	bne	tp,t0,3a0 <test_18+0x8>

00000000000003c4 <test_19>:
 3c4:	01300193          	li	gp,19
 3c8:	00000213          	li	tp,0
 3cc:	00f0009b          	addiw	ra,zero,15
 3d0:	01c09093          	slli	ra,ra,0x1c
 3d4:	fff08093          	addi	ra,ra,-1
 3d8:	00f0011b          	addiw	sp,zero,15
 3dc:	01c11113          	slli	sp,sp,0x1c
 3e0:	00000013          	nop
 3e4:	1020f663          	bgeu	ra,sp,4f0 <fail>
 3e8:	00120213          	addi	tp,tp,1 # 1 <_start+0x1>
 3ec:	00200293          	li	t0,2
 3f0:	fc521ee3          	bne	tp,t0,3cc <test_19+0x8>

00000000000003f4 <test_20>:
 3f4:	01400193          	li	gp,20
 3f8:	00000213          	li	tp,0
 3fc:	00f0009b          	addiw	ra,zero,15
 400:	01c09093          	slli	ra,ra,0x1c
 404:	fff08093          	addi	ra,ra,-1
 408:	00f0011b          	addiw	sp,zero,15
 40c:	01c11113          	slli	sp,sp,0x1c
 410:	00000013          	nop
 414:	00000013          	nop
 418:	0c20fc63          	bgeu	ra,sp,4f0 <fail>
 41c:	00120213          	addi	tp,tp,1 # 1 <_start+0x1>
 420:	00200293          	li	t0,2
 424:	fc521ce3          	bne	tp,t0,3fc <test_20+0x8>

0000000000000428 <test_21>:
 428:	01500193          	li	gp,21
 42c:	00000213          	li	tp,0
 430:	00f0009b          	addiw	ra,zero,15
 434:	01c09093          	slli	ra,ra,0x1c
 438:	fff08093          	addi	ra,ra,-1
 43c:	00000013          	nop
 440:	00f0011b          	addiw	sp,zero,15
 444:	01c11113          	slli	sp,sp,0x1c
 448:	0a20f463          	bgeu	ra,sp,4f0 <fail>
 44c:	00120213          	addi	tp,tp,1 # 1 <_start+0x1>
 450:	00200293          	li	t0,2
 454:	fc521ee3          	bne	tp,t0,430 <test_21+0x8>

0000000000000458 <test_22>:
 458:	01600193          	li	gp,22
 45c:	00000213          	li	tp,0
 460:	00f0009b          	addiw	ra,zero,15
 464:	01c09093          	slli	ra,ra,0x1c
 468:	fff08093          	addi	ra,ra,-1
 46c:	00000013          	nop
 470:	00f0011b          	addiw	sp,zero,15
 474:	01c11113          	slli	sp,sp,0x1c
 478:	00000013          	nop
 47c:	0620fa63          	bgeu	ra,sp,4f0 <fail>
 480:	00120213          	addi	tp,tp,1 # 1 <_start+0x1>
 484:	00200293          	li	t0,2
 488:	fc521ce3          	bne	tp,t0,460 <test_22+0x8>

000000000000048c <test_23>:
 48c:	01700193          	li	gp,23
 490:	00000213          	li	tp,0
 494:	00f0009b          	addiw	ra,zero,15
 498:	01c09093          	slli	ra,ra,0x1c
 49c:	fff08093          	addi	ra,ra,-1
 4a0:	00000013          	nop
 4a4:	00000013          	nop
 4a8:	00f0011b          	addiw	sp,zero,15
 4ac:	01c11113          	slli	sp,sp,0x1c
 4b0:	0420f063          	bgeu	ra,sp,4f0 <fail>
 4b4:	00120213          	addi	tp,tp,1 # 1 <_start+0x1>
 4b8:	00200293          	li	t0,2
 4bc:	fc521ce3          	bne	tp,t0,494 <test_23+0x8>

00000000000004c0 <test_24>:
 4c0:	00100093          	li	ra,1
 4c4:	0000fa63          	bgeu	ra,zero,4d8 <test_24+0x18>
 4c8:	00108093          	addi	ra,ra,1
 4cc:	00108093          	addi	ra,ra,1
 4d0:	00108093          	addi	ra,ra,1
 4d4:	00108093          	addi	ra,ra,1
 4d8:	00108093          	addi	ra,ra,1
 4dc:	00108093          	addi	ra,ra,1
 4e0:	00300e93          	li	t4,3
 4e4:	01800193          	li	gp,24
 4e8:	01d09463          	bne	ra,t4,4f0 <fail>
 4ec:	00301c63          	bne	zero,gp,504 <pass>

00000000000004f0 <fail>:
 4f0:	0ff0000f          	fence
 4f4:	00018063          	beqz	gp,4f4 <fail+0x4>
 4f8:	00119193          	slli	gp,gp,0x1
 4fc:	0011e193          	ori	gp,gp,1
 500:	00000073          	ecall

0000000000000504 <pass>:
 504:	0ff0000f          	fence
 508:	00100193          	li	gp,1
 50c:	00000073          	ecall
 510:	c0001073          	unimp
 514:	0000                	unimp
 516:	0000                	unimp
 518:	0000                	unimp
 51a:	0000                	unimp
 51c:	0000                	unimp
 51e:	0000                	unimp
 520:	0000                	unimp
 522:	0000                	unimp
 524:	0000                	unimp
 526:	0000                	unimp
 528:	0000                	unimp
 52a:	0000                	unimp
 52c:	0000                	unimp
 52e:	0000                	unimp
 530:	0000                	unimp
 532:	0000                	unimp
 534:	0000                	unimp
 536:	0000                	unimp
 538:	0000                	unimp
 53a:	0000                	unimp
 53c:	0000                	unimp
 53e:	0000                	unimp
 540:	0000                	unimp
 542:	0000                	unimp
