
rv64ui-p-bne:     file format elf64-littleriscv


Disassembly of section .text:

0000000000000100 <tvec_user>:
 100:	00000f17          	auipc	t5,0x0
 104:	430f0f13          	addi	t5,t5,1072 # 530 <ecall>
 108:	34102ff3          	csrr	t6,mepc
 10c:	07ff0c63          	beq	t5,t6,184 <write_tohost>
 110:	00000f17          	auipc	t5,0x0
 114:	ef0f0f13          	addi	t5,t5,-272 # 0 <tvec_user-0x100>
 118:	020f1863          	bnez	t5,148 <mrts_routine>
 11c:	00000f17          	auipc	t5,0x0
 120:	ee4f0f13          	addi	t5,t5,-284 # 0 <tvec_user-0x100>
 124:	000f0463          	beqz	t5,12c <tvec_user+0x2c>
 128:	ed9ff06f          	j	0 <tvec_user-0x100>
 12c:	0540006f          	j	180 <other_exception>
 130:	00000013          	nop
 134:	00000013          	nop
 138:	00000013          	nop
 13c:	00000013          	nop

0000000000000140 <tvec_supervisor>:
 140:	34202f73          	csrr	t5,mcause
 144:	fa0f5ee3          	bgez	t5,100 <tvec_user>

0000000000000148 <mrts_routine>:
 148:	30500073          	mrts
 14c:	00000013          	nop
 150:	00000013          	nop
 154:	00000013          	nop
 158:	00000013          	nop
 15c:	00000013          	nop
 160:	00000013          	nop
 164:	00000013          	nop
 168:	00000013          	nop
 16c:	00000013          	nop
 170:	00000013          	nop
 174:	00000013          	nop
 178:	00000013          	nop
 17c:	00000013          	nop

0000000000000180 <other_exception>:
 180:	539e6e13          	ori	t3,t3,1337

0000000000000184 <write_tohost>:
 184:	780e1073          	csrw	mtohost,t3
 188:	ffdff06f          	j	184 <write_tohost>
 18c:	00000013          	nop
 190:	00000013          	nop
 194:	00000013          	nop
 198:	00000013          	nop
 19c:	00000013          	nop
 1a0:	00000013          	nop
 1a4:	00000013          	nop
 1a8:	00000013          	nop
 1ac:	00000013          	nop
 1b0:	00000013          	nop
 1b4:	00000013          	nop
 1b8:	00000013          	nop
 1bc:	00000013          	nop

00000000000001c0 <tvec_machine>:
 1c0:	00000f17          	auipc	t5,0x0
 1c4:	370f0f13          	addi	t5,t5,880 # 530 <ecall>
 1c8:	34102ff3          	csrr	t6,mepc
 1cc:	fbff0ce3          	beq	t5,t6,184 <write_tohost>
 1d0:	00000f17          	auipc	t5,0x0
 1d4:	e30f0f13          	addi	t5,t5,-464 # 0 <tvec_user-0x100>
 1d8:	000f0463          	beqz	t5,1e0 <tvec_machine+0x20>
 1dc:	e25ff06f          	j	0 <tvec_user-0x100>
 1e0:	fa1ff06f          	j	180 <other_exception>
 1e4:	00000013          	nop
 1e8:	00000013          	nop
 1ec:	00000013          	nop
 1f0:	00000013          	nop
 1f4:	00000013          	nop
 1f8:	00000013          	nop
 1fc:	00000013          	nop

0000000000000200 <_start>:
 200:	f1002573          	csrr	a0,mhartid
 204:	00051063          	bnez	a0,204 <_start+0x4>
 208:	f0002573          	csrr	a0,mcpuid
 20c:	00054863          	bltz	a0,21c <_start+0x1c>
 210:	0ff0000f          	fence
 214:	00100e13          	li	t3,1
 218:	3180006f          	j	530 <ecall>
 21c:	00000e13          	li	t3,0
 220:	00000297          	auipc	t0,0x0
 224:	de028293          	addi	t0,t0,-544 # 0 <tvec_user-0x100>
 228:	00028463          	beqz	t0,230 <_start+0x30>
 22c:	10129073          	csrw	stvec,t0
 230:	1f800293          	li	t0,504
 234:	3002b073          	csrc	mstatus,t0
 238:	00000297          	auipc	t0,0x0
 23c:	01428293          	addi	t0,t0,20 # 24c <test_2>
 240:	34129073          	csrw	mepc,t0
 244:	f1002573          	csrr	a0,mhartid
 248:	10000073          	eret

000000000000024c <test_2>:
 24c:	00200e13          	li	t3,2
 250:	00000093          	li	ra,0
 254:	00100113          	li	sp,1
 258:	00209663          	bne	ra,sp,264 <test_2+0x18>
 25c:	2bc01a63          	bne	zero,t3,510 <fail>
 260:	01c01663          	bne	zero,t3,26c <test_3>
 264:	fe209ee3          	bne	ra,sp,260 <test_2+0x14>
 268:	2bc01463          	bne	zero,t3,510 <fail>

000000000000026c <test_3>:
 26c:	00300e13          	li	t3,3
 270:	00100093          	li	ra,1
 274:	00000113          	li	sp,0
 278:	00209663          	bne	ra,sp,284 <test_3+0x18>
 27c:	29c01a63          	bne	zero,t3,510 <fail>
 280:	01c01663          	bne	zero,t3,28c <test_4>
 284:	fe209ee3          	bne	ra,sp,280 <test_3+0x14>
 288:	29c01463          	bne	zero,t3,510 <fail>

000000000000028c <test_4>:
 28c:	00400e13          	li	t3,4
 290:	fff00093          	li	ra,-1
 294:	00100113          	li	sp,1
 298:	00209663          	bne	ra,sp,2a4 <test_4+0x18>
 29c:	27c01a63          	bne	zero,t3,510 <fail>
 2a0:	01c01663          	bne	zero,t3,2ac <test_5>
 2a4:	fe209ee3          	bne	ra,sp,2a0 <test_4+0x14>
 2a8:	27c01463          	bne	zero,t3,510 <fail>

00000000000002ac <test_5>:
 2ac:	00500e13          	li	t3,5
 2b0:	00100093          	li	ra,1
 2b4:	fff00113          	li	sp,-1
 2b8:	00209663          	bne	ra,sp,2c4 <test_5+0x18>
 2bc:	25c01a63          	bne	zero,t3,510 <fail>
 2c0:	01c01663          	bne	zero,t3,2cc <test_6>
 2c4:	fe209ee3          	bne	ra,sp,2c0 <test_5+0x14>
 2c8:	25c01463          	bne	zero,t3,510 <fail>

00000000000002cc <test_6>:
 2cc:	00600e13          	li	t3,6
 2d0:	00000093          	li	ra,0
 2d4:	00000113          	li	sp,0
 2d8:	00209463          	bne	ra,sp,2e0 <test_6+0x14>
 2dc:	01c01463          	bne	zero,t3,2e4 <test_6+0x18>
 2e0:	23c01863          	bne	zero,t3,510 <fail>
 2e4:	fe209ee3          	bne	ra,sp,2e0 <test_6+0x14>

00000000000002e8 <test_7>:
 2e8:	00700e13          	li	t3,7
 2ec:	00100093          	li	ra,1
 2f0:	00100113          	li	sp,1
 2f4:	00209463          	bne	ra,sp,2fc <test_7+0x14>
 2f8:	01c01463          	bne	zero,t3,300 <test_7+0x18>
 2fc:	21c01a63          	bne	zero,t3,510 <fail>
 300:	fe209ee3          	bne	ra,sp,2fc <test_7+0x14>

0000000000000304 <test_8>:
 304:	00800e13          	li	t3,8
 308:	fff00093          	li	ra,-1
 30c:	fff00113          	li	sp,-1
 310:	00209463          	bne	ra,sp,318 <test_8+0x14>
 314:	01c01463          	bne	zero,t3,31c <test_8+0x18>
 318:	1fc01c63          	bne	zero,t3,510 <fail>
 31c:	fe209ee3          	bne	ra,sp,318 <test_8+0x14>

0000000000000320 <test_9>:
 320:	00900e13          	li	t3,9
 324:	00000213          	li	tp,0
 328:	00000093          	li	ra,0
 32c:	00000113          	li	sp,0
 330:	1e209063          	bne	ra,sp,510 <fail>
 334:	00120213          	addi	tp,tp,1 # 1 <tvec_user-0xff>
 338:	00200293          	li	t0,2
 33c:	fe5216e3          	bne	tp,t0,328 <test_9+0x8>

0000000000000340 <test_10>:
 340:	00a00e13          	li	t3,10
 344:	00000213          	li	tp,0
 348:	00000093          	li	ra,0
 34c:	00000113          	li	sp,0
 350:	00000013          	nop
 354:	1a209e63          	bne	ra,sp,510 <fail>
 358:	00120213          	addi	tp,tp,1 # 1 <tvec_user-0xff>
 35c:	00200293          	li	t0,2
 360:	fe5214e3          	bne	tp,t0,348 <test_10+0x8>

0000000000000364 <test_11>:
 364:	00b00e13          	li	t3,11
 368:	00000213          	li	tp,0
 36c:	00000093          	li	ra,0
 370:	00000113          	li	sp,0
 374:	00000013          	nop
 378:	00000013          	nop
 37c:	18209a63          	bne	ra,sp,510 <fail>
 380:	00120213          	addi	tp,tp,1 # 1 <tvec_user-0xff>
 384:	00200293          	li	t0,2
 388:	fe5212e3          	bne	tp,t0,36c <test_11+0x8>

000000000000038c <test_12>:
 38c:	00c00e13          	li	t3,12
 390:	00000213          	li	tp,0
 394:	00000093          	li	ra,0
 398:	00000013          	nop
 39c:	00000113          	li	sp,0
 3a0:	16209863          	bne	ra,sp,510 <fail>
 3a4:	00120213          	addi	tp,tp,1 # 1 <tvec_user-0xff>
 3a8:	00200293          	li	t0,2
 3ac:	fe5214e3          	bne	tp,t0,394 <test_12+0x8>

00000000000003b0 <test_13>:
 3b0:	00d00e13          	li	t3,13
 3b4:	00000213          	li	tp,0
 3b8:	00000093          	li	ra,0
 3bc:	00000013          	nop
 3c0:	00000113          	li	sp,0
 3c4:	00000013          	nop
 3c8:	14209463          	bne	ra,sp,510 <fail>
 3cc:	00120213          	addi	tp,tp,1 # 1 <tvec_user-0xff>
 3d0:	00200293          	li	t0,2
 3d4:	fe5212e3          	bne	tp,t0,3b8 <test_13+0x8>

00000000000003d8 <test_14>:
 3d8:	00e00e13          	li	t3,14
 3dc:	00000213          	li	tp,0
 3e0:	00000093          	li	ra,0
 3e4:	00000013          	nop
 3e8:	00000013          	nop
 3ec:	00000113          	li	sp,0
 3f0:	12209063          	bne	ra,sp,510 <fail>
 3f4:	00120213          	addi	tp,tp,1 # 1 <tvec_user-0xff>
 3f8:	00200293          	li	t0,2
 3fc:	fe5212e3          	bne	tp,t0,3e0 <test_14+0x8>

0000000000000400 <test_15>:
 400:	00f00e13          	li	t3,15
 404:	00000213          	li	tp,0
 408:	00000093          	li	ra,0
 40c:	00000113          	li	sp,0
 410:	10209063          	bne	ra,sp,510 <fail>
 414:	00120213          	addi	tp,tp,1 # 1 <tvec_user-0xff>
 418:	00200293          	li	t0,2
 41c:	fe5216e3          	bne	tp,t0,408 <test_15+0x8>

0000000000000420 <test_16>:
 420:	01000e13          	li	t3,16
 424:	00000213          	li	tp,0
 428:	00000093          	li	ra,0
 42c:	00000113          	li	sp,0
 430:	00000013          	nop
 434:	0c209e63          	bne	ra,sp,510 <fail>
 438:	00120213          	addi	tp,tp,1 # 1 <tvec_user-0xff>
 43c:	00200293          	li	t0,2
 440:	fe5214e3          	bne	tp,t0,428 <test_16+0x8>

0000000000000444 <test_17>:
 444:	01100e13          	li	t3,17
 448:	00000213          	li	tp,0
 44c:	00000093          	li	ra,0
 450:	00000113          	li	sp,0
 454:	00000013          	nop
 458:	00000013          	nop
 45c:	0a209a63          	bne	ra,sp,510 <fail>
 460:	00120213          	addi	tp,tp,1 # 1 <tvec_user-0xff>
 464:	00200293          	li	t0,2
 468:	fe5212e3          	bne	tp,t0,44c <test_17+0x8>

000000000000046c <test_18>:
 46c:	01200e13          	li	t3,18
 470:	00000213          	li	tp,0
 474:	00000093          	li	ra,0
 478:	00000013          	nop
 47c:	00000113          	li	sp,0
 480:	08209863          	bne	ra,sp,510 <fail>
 484:	00120213          	addi	tp,tp,1 # 1 <tvec_user-0xff>
 488:	00200293          	li	t0,2
 48c:	fe5214e3          	bne	tp,t0,474 <test_18+0x8>

0000000000000490 <test_19>:
 490:	01300e13          	li	t3,19
 494:	00000213          	li	tp,0
 498:	00000093          	li	ra,0
 49c:	00000013          	nop
 4a0:	00000113          	li	sp,0
 4a4:	00000013          	nop
 4a8:	06209463          	bne	ra,sp,510 <fail>
 4ac:	00120213          	addi	tp,tp,1 # 1 <tvec_user-0xff>
 4b0:	00200293          	li	t0,2
 4b4:	fe5212e3          	bne	tp,t0,498 <test_19+0x8>

00000000000004b8 <test_20>:
 4b8:	01400e13          	li	t3,20
 4bc:	00000213          	li	tp,0
 4c0:	00000093          	li	ra,0
 4c4:	00000013          	nop
 4c8:	00000013          	nop
 4cc:	00000113          	li	sp,0
 4d0:	04209063          	bne	ra,sp,510 <fail>
 4d4:	00120213          	addi	tp,tp,1 # 1 <tvec_user-0xff>
 4d8:	00200293          	li	t0,2
 4dc:	fe5212e3          	bne	tp,t0,4c0 <test_20+0x8>

00000000000004e0 <test_21>:
 4e0:	00100093          	li	ra,1
 4e4:	00009a63          	bnez	ra,4f8 <test_21+0x18>
 4e8:	00108093          	addi	ra,ra,1
 4ec:	00108093          	addi	ra,ra,1
 4f0:	00108093          	addi	ra,ra,1
 4f4:	00108093          	addi	ra,ra,1
 4f8:	00108093          	addi	ra,ra,1
 4fc:	00108093          	addi	ra,ra,1
 500:	00300e93          	li	t4,3
 504:	01500e13          	li	t3,21
 508:	01d09463          	bne	ra,t4,510 <fail>
 50c:	01c01c63          	bne	zero,t3,524 <pass>

0000000000000510 <fail>:
 510:	0ff0000f          	fence
 514:	000e0063          	beqz	t3,514 <fail+0x4>
 518:	001e1e13          	slli	t3,t3,0x1
 51c:	001e6e13          	ori	t3,t3,1
 520:	0100006f          	j	530 <ecall>

0000000000000524 <pass>:
 524:	0ff0000f          	fence
 528:	00100e13          	li	t3,1
 52c:	0040006f          	j	530 <ecall>

0000000000000530 <ecall>:
 530:	00000073          	ecall
 534:	ffdff06f          	j	530 <ecall>
