
rv64ui-p-sw:     file format elf64-littleriscv


Disassembly of section .text:

0000000000000100 <tvec_user>:
 100:	00000f17          	auipc	t5,0x0
 104:	5f0f0f13          	addi	t5,t5,1520 # 6f0 <ecall>
 108:	34102ff3          	csrr	t6,mepc
 10c:	07ff0c63          	beq	t5,t6,184 <write_tohost>
 110:	00000f17          	auipc	t5,0x0
 114:	ef0f0f13          	addi	t5,t5,-272 # 0 <tvec_user-0x100>
 118:	020f1863          	bnez	t5,148 <mrts_routine>
 11c:	00000f17          	auipc	t5,0x0
 120:	ee4f0f13          	addi	t5,t5,-284 # 0 <tvec_user-0x100>
 124:	000f0463          	beqz	t5,12c <tvec_user+0x2c>
 128:	ed9ff06f          	j	0 <tvec_user-0x100>
 12c:	0540006f          	j	180 <other_exception>
 130:	00000013          	nop
 134:	00000013          	nop
 138:	00000013          	nop
 13c:	00000013          	nop

0000000000000140 <tvec_supervisor>:
 140:	34202f73          	csrr	t5,mcause
 144:	fa0f5ee3          	bgez	t5,100 <tvec_user>

0000000000000148 <mrts_routine>:
 148:	30500073          	mrts
 14c:	00000013          	nop
 150:	00000013          	nop
 154:	00000013          	nop
 158:	00000013          	nop
 15c:	00000013          	nop
 160:	00000013          	nop
 164:	00000013          	nop
 168:	00000013          	nop
 16c:	00000013          	nop
 170:	00000013          	nop
 174:	00000013          	nop
 178:	00000013          	nop
 17c:	00000013          	nop

0000000000000180 <other_exception>:
 180:	539e6e13          	ori	t3,t3,1337

0000000000000184 <write_tohost>:
 184:	780e1073          	csrw	mtohost,t3
 188:	ffdff06f          	j	184 <write_tohost>
 18c:	00000013          	nop
 190:	00000013          	nop
 194:	00000013          	nop
 198:	00000013          	nop
 19c:	00000013          	nop
 1a0:	00000013          	nop
 1a4:	00000013          	nop
 1a8:	00000013          	nop
 1ac:	00000013          	nop
 1b0:	00000013          	nop
 1b4:	00000013          	nop
 1b8:	00000013          	nop
 1bc:	00000013          	nop

00000000000001c0 <tvec_machine>:
 1c0:	00000f17          	auipc	t5,0x0
 1c4:	530f0f13          	addi	t5,t5,1328 # 6f0 <ecall>
 1c8:	34102ff3          	csrr	t6,mepc
 1cc:	fbff0ce3          	beq	t5,t6,184 <write_tohost>
 1d0:	00000f17          	auipc	t5,0x0
 1d4:	e30f0f13          	addi	t5,t5,-464 # 0 <tvec_user-0x100>
 1d8:	000f0463          	beqz	t5,1e0 <tvec_machine+0x20>
 1dc:	e25ff06f          	j	0 <tvec_user-0x100>
 1e0:	fa1ff06f          	j	180 <other_exception>
 1e4:	00000013          	nop
 1e8:	00000013          	nop
 1ec:	00000013          	nop
 1f0:	00000013          	nop
 1f4:	00000013          	nop
 1f8:	00000013          	nop
 1fc:	00000013          	nop

0000000000000200 <_start>:
 200:	f1002573          	csrr	a0,mhartid
 204:	00051063          	bnez	a0,204 <_start+0x4>
 208:	f0002573          	csrr	a0,mcpuid
 20c:	00054863          	bltz	a0,21c <_start+0x1c>
 210:	0ff0000f          	fence
 214:	00100e13          	li	t3,1
 218:	4d80006f          	j	6f0 <ecall>
 21c:	00000e13          	li	t3,0
 220:	00000297          	auipc	t0,0x0
 224:	de028293          	addi	t0,t0,-544 # 0 <tvec_user-0x100>
 228:	00028463          	beqz	t0,230 <_start+0x30>
 22c:	10129073          	csrw	stvec,t0
 230:	1f800293          	li	t0,504
 234:	3002b073          	csrc	mstatus,t0
 238:	00000297          	auipc	t0,0x0
 23c:	01428293          	addi	t0,t0,20 # 24c <test_2>
 240:	34129073          	csrw	mepc,t0
 244:	f1002573          	csrr	a0,mhartid
 248:	10000073          	eret

000000000000024c <test_2>:
 24c:	00001097          	auipc	ra,0x1
 250:	db408093          	addi	ra,ra,-588 # 1000 <begin_signature>
 254:	00aa0137          	lui	sp,0xaa0
 258:	0aa1011b          	addiw	sp,sp,170
 25c:	0020a023          	sw	sp,0(ra)
 260:	0000a183          	lw	gp,0(ra)
 264:	00aa0eb7          	lui	t4,0xaa0
 268:	0aae8e9b          	addiw	t4,t4,170
 26c:	00200e13          	li	t3,2
 270:	47d19063          	bne	gp,t4,6d0 <fail>

0000000000000274 <test_3>:
 274:	00001097          	auipc	ra,0x1
 278:	d8c08093          	addi	ra,ra,-628 # 1000 <begin_signature>
 27c:	aa00b137          	lui	sp,0xaa00b
 280:	a001011b          	addiw	sp,sp,-1536
 284:	0020a223          	sw	sp,4(ra)
 288:	0040a183          	lw	gp,4(ra)
 28c:	aa00beb7          	lui	t4,0xaa00b
 290:	a00e8e9b          	addiw	t4,t4,-1536
 294:	00300e13          	li	t3,3
 298:	43d19c63          	bne	gp,t4,6d0 <fail>

000000000000029c <test_4>:
 29c:	00001097          	auipc	ra,0x1
 2a0:	d6408093          	addi	ra,ra,-668 # 1000 <begin_signature>
 2a4:	0aa01137          	lui	sp,0xaa01
 2a8:	aa01011b          	addiw	sp,sp,-1376
 2ac:	0020a423          	sw	sp,8(ra)
 2b0:	0080a183          	lw	gp,8(ra)
 2b4:	0aa01eb7          	lui	t4,0xaa01
 2b8:	aa0e8e9b          	addiw	t4,t4,-1376
 2bc:	00400e13          	li	t3,4
 2c0:	41d19863          	bne	gp,t4,6d0 <fail>

00000000000002c4 <test_5>:
 2c4:	00001097          	auipc	ra,0x1
 2c8:	d3c08093          	addi	ra,ra,-708 # 1000 <begin_signature>
 2cc:	a00aa137          	lui	sp,0xa00aa
 2d0:	00a1011b          	addiw	sp,sp,10
 2d4:	0020a623          	sw	sp,12(ra)
 2d8:	00c0a183          	lw	gp,12(ra)
 2dc:	a00aaeb7          	lui	t4,0xa00aa
 2e0:	00ae8e9b          	addiw	t4,t4,10
 2e4:	00500e13          	li	t3,5
 2e8:	3fd19463          	bne	gp,t4,6d0 <fail>

00000000000002ec <test_6>:
 2ec:	00001097          	auipc	ra,0x1
 2f0:	d3008093          	addi	ra,ra,-720 # 101c <tdat8>
 2f4:	00aa0137          	lui	sp,0xaa0
 2f8:	0aa1011b          	addiw	sp,sp,170
 2fc:	fe20aa23          	sw	sp,-12(ra)
 300:	ff40a183          	lw	gp,-12(ra)
 304:	00aa0eb7          	lui	t4,0xaa0
 308:	0aae8e9b          	addiw	t4,t4,170
 30c:	00600e13          	li	t3,6
 310:	3dd19063          	bne	gp,t4,6d0 <fail>

0000000000000314 <test_7>:
 314:	00001097          	auipc	ra,0x1
 318:	d0808093          	addi	ra,ra,-760 # 101c <tdat8>
 31c:	aa00b137          	lui	sp,0xaa00b
 320:	a001011b          	addiw	sp,sp,-1536
 324:	fe20ac23          	sw	sp,-8(ra)
 328:	ff80a183          	lw	gp,-8(ra)
 32c:	aa00beb7          	lui	t4,0xaa00b
 330:	a00e8e9b          	addiw	t4,t4,-1536
 334:	00700e13          	li	t3,7
 338:	39d19c63          	bne	gp,t4,6d0 <fail>

000000000000033c <test_8>:
 33c:	00001097          	auipc	ra,0x1
 340:	ce008093          	addi	ra,ra,-800 # 101c <tdat8>
 344:	0aa01137          	lui	sp,0xaa01
 348:	aa01011b          	addiw	sp,sp,-1376
 34c:	fe20ae23          	sw	sp,-4(ra)
 350:	ffc0a183          	lw	gp,-4(ra)
 354:	0aa01eb7          	lui	t4,0xaa01
 358:	aa0e8e9b          	addiw	t4,t4,-1376
 35c:	00800e13          	li	t3,8
 360:	37d19863          	bne	gp,t4,6d0 <fail>

0000000000000364 <test_9>:
 364:	00001097          	auipc	ra,0x1
 368:	cb808093          	addi	ra,ra,-840 # 101c <tdat8>
 36c:	a00aa137          	lui	sp,0xa00aa
 370:	00a1011b          	addiw	sp,sp,10
 374:	0020a023          	sw	sp,0(ra)
 378:	0000a183          	lw	gp,0(ra)
 37c:	a00aaeb7          	lui	t4,0xa00aa
 380:	00ae8e9b          	addiw	t4,t4,10
 384:	00900e13          	li	t3,9
 388:	35d19463          	bne	gp,t4,6d0 <fail>

000000000000038c <test_10>:
 38c:	00001097          	auipc	ra,0x1
 390:	c9408093          	addi	ra,ra,-876 # 1020 <tdat9>
 394:	12345137          	lui	sp,0x12345
 398:	6781011b          	addiw	sp,sp,1656
 39c:	fe008213          	addi	tp,ra,-32
 3a0:	02222023          	sw	sp,32(tp) # 20 <tvec_user-0xe0>
 3a4:	0000a183          	lw	gp,0(ra)
 3a8:	12345eb7          	lui	t4,0x12345
 3ac:	678e8e9b          	addiw	t4,t4,1656
 3b0:	00a00e13          	li	t3,10
 3b4:	31d19e63          	bne	gp,t4,6d0 <fail>

00000000000003b8 <test_11>:
 3b8:	00001097          	auipc	ra,0x1
 3bc:	c6808093          	addi	ra,ra,-920 # 1020 <tdat9>
 3c0:	58213137          	lui	sp,0x58213
 3c4:	0981011b          	addiw	sp,sp,152
 3c8:	ffd08093          	addi	ra,ra,-3
 3cc:	0020a3a3          	sw	sp,7(ra)
 3d0:	00001217          	auipc	tp,0x1
 3d4:	c5420213          	addi	tp,tp,-940 # 1024 <tdat10>
 3d8:	00022183          	lw	gp,0(tp) # 0 <tvec_user-0x100>
 3dc:	58213eb7          	lui	t4,0x58213
 3e0:	098e8e9b          	addiw	t4,t4,152
 3e4:	00b00e13          	li	t3,11
 3e8:	2fd19463          	bne	gp,t4,6d0 <fail>

00000000000003ec <test_12>:
 3ec:	00c00e13          	li	t3,12
 3f0:	00000213          	li	tp,0
 3f4:	aabbd0b7          	lui	ra,0xaabbd
 3f8:	cdd0809b          	addiw	ra,ra,-803
 3fc:	00001117          	auipc	sp,0x1
 400:	c0410113          	addi	sp,sp,-1020 # 1000 <begin_signature>
 404:	00112023          	sw	ra,0(sp)
 408:	00012183          	lw	gp,0(sp)
 40c:	aabbdeb7          	lui	t4,0xaabbd
 410:	cdde8e9b          	addiw	t4,t4,-803
 414:	2bd19e63          	bne	gp,t4,6d0 <fail>
 418:	00120213          	addi	tp,tp,1 # 1 <tvec_user-0xff>
 41c:	00200293          	li	t0,2
 420:	fc521ae3          	bne	tp,t0,3f4 <test_12+0x8>

0000000000000424 <test_13>:
 424:	00d00e13          	li	t3,13
 428:	00000213          	li	tp,0
 42c:	daabc0b7          	lui	ra,0xdaabc
 430:	ccd0809b          	addiw	ra,ra,-819
 434:	00001117          	auipc	sp,0x1
 438:	bcc10113          	addi	sp,sp,-1076 # 1000 <begin_signature>
 43c:	00000013          	nop
 440:	00112223          	sw	ra,4(sp)
 444:	00412183          	lw	gp,4(sp)
 448:	daabceb7          	lui	t4,0xdaabc
 44c:	ccde8e9b          	addiw	t4,t4,-819
 450:	29d19063          	bne	gp,t4,6d0 <fail>
 454:	00120213          	addi	tp,tp,1 # 1 <tvec_user-0xff>
 458:	00200293          	li	t0,2
 45c:	fc5218e3          	bne	tp,t0,42c <test_13+0x8>

0000000000000460 <test_14>:
 460:	00e00e13          	li	t3,14
 464:	00000213          	li	tp,0
 468:	ddaac0b7          	lui	ra,0xddaac
 46c:	bcc0809b          	addiw	ra,ra,-1076
 470:	00001117          	auipc	sp,0x1
 474:	b9010113          	addi	sp,sp,-1136 # 1000 <begin_signature>
 478:	00000013          	nop
 47c:	00000013          	nop
 480:	00112423          	sw	ra,8(sp)
 484:	00812183          	lw	gp,8(sp)
 488:	ddaaceb7          	lui	t4,0xddaac
 48c:	bcce8e9b          	addiw	t4,t4,-1076
 490:	25d19063          	bne	gp,t4,6d0 <fail>
 494:	00120213          	addi	tp,tp,1 # 1 <tvec_user-0xff>
 498:	00200293          	li	t0,2
 49c:	fc5216e3          	bne	tp,t0,468 <test_14+0x8>

00000000000004a0 <test_15>:
 4a0:	00f00e13          	li	t3,15
 4a4:	00000213          	li	tp,0
 4a8:	cddab0b7          	lui	ra,0xcddab
 4ac:	bbc0809b          	addiw	ra,ra,-1092
 4b0:	00000013          	nop
 4b4:	00001117          	auipc	sp,0x1
 4b8:	b4c10113          	addi	sp,sp,-1204 # 1000 <begin_signature>
 4bc:	00112623          	sw	ra,12(sp)
 4c0:	00c12183          	lw	gp,12(sp)
 4c4:	cddabeb7          	lui	t4,0xcddab
 4c8:	bbce8e9b          	addiw	t4,t4,-1092
 4cc:	21d19263          	bne	gp,t4,6d0 <fail>
 4d0:	00120213          	addi	tp,tp,1 # 1 <tvec_user-0xff>
 4d4:	00200293          	li	t0,2
 4d8:	fc5218e3          	bne	tp,t0,4a8 <test_15+0x8>

00000000000004dc <test_16>:
 4dc:	01000e13          	li	t3,16
 4e0:	00000213          	li	tp,0
 4e4:	ccddb0b7          	lui	ra,0xccddb
 4e8:	abb0809b          	addiw	ra,ra,-1349
 4ec:	00000013          	nop
 4f0:	00001117          	auipc	sp,0x1
 4f4:	b1010113          	addi	sp,sp,-1264 # 1000 <begin_signature>
 4f8:	00000013          	nop
 4fc:	00112823          	sw	ra,16(sp)
 500:	01012183          	lw	gp,16(sp)
 504:	ccddbeb7          	lui	t4,0xccddb
 508:	abbe8e9b          	addiw	t4,t4,-1349
 50c:	1dd19263          	bne	gp,t4,6d0 <fail>
 510:	00120213          	addi	tp,tp,1 # 1 <tvec_user-0xff>
 514:	00200293          	li	t0,2
 518:	fc5216e3          	bne	tp,t0,4e4 <test_16+0x8>

000000000000051c <test_17>:
 51c:	01100e13          	li	t3,17
 520:	00000213          	li	tp,0
 524:	bccde0b7          	lui	ra,0xbccde
 528:	aab0809b          	addiw	ra,ra,-1365
 52c:	00000013          	nop
 530:	00000013          	nop
 534:	00001117          	auipc	sp,0x1
 538:	acc10113          	addi	sp,sp,-1332 # 1000 <begin_signature>
 53c:	00112a23          	sw	ra,20(sp)
 540:	01412183          	lw	gp,20(sp)
 544:	bccdeeb7          	lui	t4,0xbccde
 548:	aabe8e9b          	addiw	t4,t4,-1365
 54c:	19d19263          	bne	gp,t4,6d0 <fail>
 550:	00120213          	addi	tp,tp,1 # 1 <tvec_user-0xff>
 554:	00200293          	li	t0,2
 558:	fc5216e3          	bne	tp,t0,524 <test_17+0x8>

000000000000055c <test_18>:
 55c:	01200e13          	li	t3,18
 560:	00000213          	li	tp,0
 564:	00001117          	auipc	sp,0x1
 568:	a9c10113          	addi	sp,sp,-1380 # 1000 <begin_signature>
 56c:	001120b7          	lui	ra,0x112
 570:	2330809b          	addiw	ra,ra,563
 574:	00112023          	sw	ra,0(sp)
 578:	00012183          	lw	gp,0(sp)
 57c:	00112eb7          	lui	t4,0x112
 580:	233e8e9b          	addiw	t4,t4,563
 584:	15d19663          	bne	gp,t4,6d0 <fail>
 588:	00120213          	addi	tp,tp,1 # 1 <tvec_user-0xff>
 58c:	00200293          	li	t0,2
 590:	fc521ae3          	bne	tp,t0,564 <test_18+0x8>

0000000000000594 <test_19>:
 594:	01300e13          	li	t3,19
 598:	00000213          	li	tp,0
 59c:	00001117          	auipc	sp,0x1
 5a0:	a6410113          	addi	sp,sp,-1436 # 1000 <begin_signature>
 5a4:	300110b7          	lui	ra,0x30011
 5a8:	2230809b          	addiw	ra,ra,547
 5ac:	00000013          	nop
 5b0:	00112223          	sw	ra,4(sp)
 5b4:	00412183          	lw	gp,4(sp)
 5b8:	30011eb7          	lui	t4,0x30011
 5bc:	223e8e9b          	addiw	t4,t4,547
 5c0:	11d19863          	bne	gp,t4,6d0 <fail>
 5c4:	00120213          	addi	tp,tp,1 # 1 <tvec_user-0xff>
 5c8:	00200293          	li	t0,2
 5cc:	fc5218e3          	bne	tp,t0,59c <test_19+0x8>

00000000000005d0 <test_20>:
 5d0:	01400e13          	li	t3,20
 5d4:	00000213          	li	tp,0
 5d8:	00001117          	auipc	sp,0x1
 5dc:	a2810113          	addi	sp,sp,-1496 # 1000 <begin_signature>
 5e0:	330010b7          	lui	ra,0x33001
 5e4:	1220809b          	addiw	ra,ra,290
 5e8:	00000013          	nop
 5ec:	00000013          	nop
 5f0:	00112423          	sw	ra,8(sp)
 5f4:	00812183          	lw	gp,8(sp)
 5f8:	33001eb7          	lui	t4,0x33001
 5fc:	122e8e9b          	addiw	t4,t4,290
 600:	0dd19863          	bne	gp,t4,6d0 <fail>
 604:	00120213          	addi	tp,tp,1 # 1 <tvec_user-0xff>
 608:	00200293          	li	t0,2
 60c:	fc5216e3          	bne	tp,t0,5d8 <test_20+0x8>

0000000000000610 <test_21>:
 610:	01500e13          	li	t3,21
 614:	00000213          	li	tp,0
 618:	00001117          	auipc	sp,0x1
 61c:	9e810113          	addi	sp,sp,-1560 # 1000 <begin_signature>
 620:	00000013          	nop
 624:	233000b7          	lui	ra,0x23300
 628:	1120809b          	addiw	ra,ra,274
 62c:	00112623          	sw	ra,12(sp)
 630:	00c12183          	lw	gp,12(sp)
 634:	23300eb7          	lui	t4,0x23300
 638:	112e8e9b          	addiw	t4,t4,274
 63c:	09d19a63          	bne	gp,t4,6d0 <fail>
 640:	00120213          	addi	tp,tp,1 # 1 <tvec_user-0xff>
 644:	00200293          	li	t0,2
 648:	fc5218e3          	bne	tp,t0,618 <test_21+0x8>

000000000000064c <test_22>:
 64c:	01600e13          	li	t3,22
 650:	00000213          	li	tp,0
 654:	00001117          	auipc	sp,0x1
 658:	9ac10113          	addi	sp,sp,-1620 # 1000 <begin_signature>
 65c:	00000013          	nop
 660:	223300b7          	lui	ra,0x22330
 664:	0110809b          	addiw	ra,ra,17
 668:	00000013          	nop
 66c:	00112823          	sw	ra,16(sp)
 670:	01012183          	lw	gp,16(sp)
 674:	22330eb7          	lui	t4,0x22330
 678:	011e8e9b          	addiw	t4,t4,17
 67c:	05d19a63          	bne	gp,t4,6d0 <fail>
 680:	00120213          	addi	tp,tp,1 # 1 <tvec_user-0xff>
 684:	00200293          	li	t0,2
 688:	fc5216e3          	bne	tp,t0,654 <test_22+0x8>

000000000000068c <test_23>:
 68c:	01700e13          	li	t3,23
 690:	00000213          	li	tp,0
 694:	00001117          	auipc	sp,0x1
 698:	96c10113          	addi	sp,sp,-1684 # 1000 <begin_signature>
 69c:	00000013          	nop
 6a0:	00000013          	nop
 6a4:	122330b7          	lui	ra,0x12233
 6a8:	0010809b          	addiw	ra,ra,1
 6ac:	00112a23          	sw	ra,20(sp)
 6b0:	01412183          	lw	gp,20(sp)
 6b4:	12233eb7          	lui	t4,0x12233
 6b8:	001e8e9b          	addiw	t4,t4,1
 6bc:	01d19a63          	bne	gp,t4,6d0 <fail>
 6c0:	00120213          	addi	tp,tp,1 # 1 <tvec_user-0xff>
 6c4:	00200293          	li	t0,2
 6c8:	fc5216e3          	bne	tp,t0,694 <test_23+0x8>
 6cc:	01c01c63          	bne	zero,t3,6e4 <pass>

00000000000006d0 <fail>:
 6d0:	0ff0000f          	fence
 6d4:	000e0063          	beqz	t3,6d4 <fail+0x4>
 6d8:	001e1e13          	slli	t3,t3,0x1
 6dc:	001e6e13          	ori	t3,t3,1
 6e0:	0100006f          	j	6f0 <ecall>

00000000000006e4 <pass>:
 6e4:	0ff0000f          	fence
 6e8:	00100e13          	li	t3,1
 6ec:	0040006f          	j	6f0 <ecall>

00000000000006f0 <ecall>:
 6f0:	00000073          	ecall
 6f4:	ffdff06f          	j	6f0 <ecall>
