
rv64ui-p-sh:     file format elf64-littleriscv


Disassembly of section .text.init:

0000000000000000 <_start>:
   0:	0480006f          	j	48 <reset_vector>

0000000000000004 <trap_vector>:
   4:	34202f73          	csrr	t5,mcause
   8:	00800f93          	li	t6,8
   c:	03ff0a63          	beq	t5,t6,40 <write_tohost>
  10:	00900f93          	li	t6,9
  14:	03ff0663          	beq	t5,t6,40 <write_tohost>
  18:	00b00f93          	li	t6,11
  1c:	03ff0263          	beq	t5,t6,40 <write_tohost>
  20:	00000f17          	auipc	t5,0x0
  24:	fe0f0f13          	addi	t5,t5,-32 # 0 <_start>
  28:	000f0463          	beqz	t5,30 <trap_vector+0x2c>
  2c:	000f0067          	jr	t5
  30:	34202f73          	csrr	t5,mcause
  34:	000f5463          	bgez	t5,3c <handle_exception>
  38:	0040006f          	j	3c <handle_exception>

000000000000003c <handle_exception>:
  3c:	5391e193          	ori	gp,gp,1337

0000000000000040 <write_tohost>:
  40:	9f019073          	csrw	0x9f0,gp
  44:	ffdff06f          	j	40 <write_tohost>

0000000000000048 <reset_vector>:
  48:	f1402573          	csrr	a0,mhartid
  4c:	00051063          	bnez	a0,4c <reset_vector+0x4>
  50:	00000297          	auipc	t0,0x0
  54:	01028293          	addi	t0,t0,16 # 60 <reset_vector+0x18>
  58:	30529073          	csrw	mtvec,t0
  5c:	18005073          	csrwi	satp,0
  60:	00000297          	auipc	t0,0x0
  64:	01c28293          	addi	t0,t0,28 # 7c <reset_vector+0x34>
  68:	30529073          	csrw	mtvec,t0
  6c:	fff00293          	li	t0,-1
  70:	3b029073          	csrw	pmpaddr0,t0
  74:	01f00293          	li	t0,31
  78:	3a029073          	csrw	pmpcfg0,t0
  7c:	00000297          	auipc	t0,0x0
  80:	01828293          	addi	t0,t0,24 # 94 <reset_vector+0x4c>
  84:	30529073          	csrw	mtvec,t0
  88:	30205073          	csrwi	medeleg,0
  8c:	30305073          	csrwi	mideleg,0
  90:	30405073          	csrwi	mie,0
  94:	00000193          	li	gp,0
  98:	00000297          	auipc	t0,0x0
  9c:	f6c28293          	addi	t0,t0,-148 # 4 <trap_vector>
  a0:	30529073          	csrw	mtvec,t0
  a4:	00100513          	li	a0,1
  a8:	01f51513          	slli	a0,a0,0x1f
  ac:	00055863          	bgez	a0,bc <reset_vector+0x74>
  b0:	0ff0000f          	fence
  b4:	00100193          	li	gp,1
  b8:	00000073          	ecall
  bc:	00000297          	auipc	t0,0x0
  c0:	f4428293          	addi	t0,t0,-188 # 0 <_start>
  c4:	00028e63          	beqz	t0,e0 <reset_vector+0x98>
  c8:	10529073          	csrw	stvec,t0
  cc:	0000b2b7          	lui	t0,0xb
  d0:	1092829b          	addiw	t0,t0,265
  d4:	30229073          	csrw	medeleg,t0
  d8:	30202373          	csrr	t1,medeleg
  dc:	f66290e3          	bne	t0,t1,3c <handle_exception>
  e0:	30005073          	csrwi	mstatus,0
  e4:	00000297          	auipc	t0,0x0
  e8:	01428293          	addi	t0,t0,20 # f8 <test_2>
  ec:	34129073          	csrw	mepc,t0
  f0:	f1402573          	csrr	a0,mhartid
  f4:	30200073          	mret

00000000000000f8 <test_2>:
  f8:	00002097          	auipc	ra,0x2
  fc:	f0808093          	addi	ra,ra,-248 # 2000 <begin_signature>
 100:	0aa00113          	li	sp,170
 104:	00209023          	sh	sp,0(ra)
 108:	00009f03          	lh	t5,0(ra)
 10c:	0aa00e93          	li	t4,170
 110:	00200193          	li	gp,2
 114:	45df1e63          	bne	t5,t4,570 <fail>

0000000000000118 <test_3>:
 118:	00002097          	auipc	ra,0x2
 11c:	ee808093          	addi	ra,ra,-280 # 2000 <begin_signature>
 120:	ffffb137          	lui	sp,0xffffb
 124:	a001011b          	addiw	sp,sp,-1536
 128:	00209123          	sh	sp,2(ra)
 12c:	00209f03          	lh	t5,2(ra)
 130:	ffffbeb7          	lui	t4,0xffffb
 134:	a00e8e9b          	addiw	t4,t4,-1536
 138:	00300193          	li	gp,3
 13c:	43df1a63          	bne	t5,t4,570 <fail>

0000000000000140 <test_4>:
 140:	00002097          	auipc	ra,0x2
 144:	ec008093          	addi	ra,ra,-320 # 2000 <begin_signature>
 148:	beef1137          	lui	sp,0xbeef1
 14c:	aa01011b          	addiw	sp,sp,-1376
 150:	00209223          	sh	sp,4(ra)
 154:	0040af03          	lw	t5,4(ra)
 158:	beef1eb7          	lui	t4,0xbeef1
 15c:	aa0e8e9b          	addiw	t4,t4,-1376
 160:	00400193          	li	gp,4
 164:	41df1663          	bne	t5,t4,570 <fail>

0000000000000168 <test_5>:
 168:	00002097          	auipc	ra,0x2
 16c:	e9808093          	addi	ra,ra,-360 # 2000 <begin_signature>
 170:	ffffa137          	lui	sp,0xffffa
 174:	00a1011b          	addiw	sp,sp,10
 178:	00209323          	sh	sp,6(ra)
 17c:	00609f03          	lh	t5,6(ra)
 180:	ffffaeb7          	lui	t4,0xffffa
 184:	00ae8e9b          	addiw	t4,t4,10
 188:	00500193          	li	gp,5
 18c:	3fdf1263          	bne	t5,t4,570 <fail>

0000000000000190 <test_6>:
 190:	00002097          	auipc	ra,0x2
 194:	e7e08093          	addi	ra,ra,-386 # 200e <tdat8>
 198:	0aa00113          	li	sp,170
 19c:	fe209d23          	sh	sp,-6(ra)
 1a0:	ffa09f03          	lh	t5,-6(ra)
 1a4:	0aa00e93          	li	t4,170
 1a8:	00600193          	li	gp,6
 1ac:	3ddf1263          	bne	t5,t4,570 <fail>

00000000000001b0 <test_7>:
 1b0:	00002097          	auipc	ra,0x2
 1b4:	e5e08093          	addi	ra,ra,-418 # 200e <tdat8>
 1b8:	ffffb137          	lui	sp,0xffffb
 1bc:	a001011b          	addiw	sp,sp,-1536
 1c0:	fe209e23          	sh	sp,-4(ra)
 1c4:	ffc09f03          	lh	t5,-4(ra)
 1c8:	ffffbeb7          	lui	t4,0xffffb
 1cc:	a00e8e9b          	addiw	t4,t4,-1536
 1d0:	00700193          	li	gp,7
 1d4:	39df1e63          	bne	t5,t4,570 <fail>

00000000000001d8 <test_8>:
 1d8:	00002097          	auipc	ra,0x2
 1dc:	e3608093          	addi	ra,ra,-458 # 200e <tdat8>
 1e0:	00001137          	lui	sp,0x1
 1e4:	aa01011b          	addiw	sp,sp,-1376
 1e8:	fe209f23          	sh	sp,-2(ra)
 1ec:	ffe09f03          	lh	t5,-2(ra)
 1f0:	00001eb7          	lui	t4,0x1
 1f4:	aa0e8e9b          	addiw	t4,t4,-1376
 1f8:	00800193          	li	gp,8
 1fc:	37df1a63          	bne	t5,t4,570 <fail>

0000000000000200 <test_9>:
 200:	00002097          	auipc	ra,0x2
 204:	e0e08093          	addi	ra,ra,-498 # 200e <tdat8>
 208:	ffffa137          	lui	sp,0xffffa
 20c:	00a1011b          	addiw	sp,sp,10
 210:	00209023          	sh	sp,0(ra)
 214:	00009f03          	lh	t5,0(ra)
 218:	ffffaeb7          	lui	t4,0xffffa
 21c:	00ae8e9b          	addiw	t4,t4,10
 220:	00900193          	li	gp,9
 224:	35df1663          	bne	t5,t4,570 <fail>

0000000000000228 <test_10>:
 228:	00002097          	auipc	ra,0x2
 22c:	de808093          	addi	ra,ra,-536 # 2010 <tdat9>
 230:	12345137          	lui	sp,0x12345
 234:	6781011b          	addiw	sp,sp,1656
 238:	fe008213          	addi	tp,ra,-32
 23c:	02221023          	sh	sp,32(tp) # 20 <trap_vector+0x1c>
 240:	00009283          	lh	t0,0(ra)
 244:	00005eb7          	lui	t4,0x5
 248:	678e8e9b          	addiw	t4,t4,1656
 24c:	00a00193          	li	gp,10
 250:	33d29063          	bne	t0,t4,570 <fail>

0000000000000254 <test_11>:
 254:	00002097          	auipc	ra,0x2
 258:	dbc08093          	addi	ra,ra,-580 # 2010 <tdat9>
 25c:	00003137          	lui	sp,0x3
 260:	0981011b          	addiw	sp,sp,152
 264:	ffb08093          	addi	ra,ra,-5
 268:	002093a3          	sh	sp,7(ra)
 26c:	00002217          	auipc	tp,0x2
 270:	da620213          	addi	tp,tp,-602 # 2012 <tdat10>
 274:	00021283          	lh	t0,0(tp) # 0 <_start>
 278:	00003eb7          	lui	t4,0x3
 27c:	098e8e9b          	addiw	t4,t4,152
 280:	00b00193          	li	gp,11
 284:	2fd29663          	bne	t0,t4,570 <fail>

0000000000000288 <test_12>:
 288:	00c00193          	li	gp,12
 28c:	00000213          	li	tp,0
 290:	ffffd0b7          	lui	ra,0xffffd
 294:	cdd0809b          	addiw	ra,ra,-803
 298:	00002117          	auipc	sp,0x2
 29c:	d6810113          	addi	sp,sp,-664 # 2000 <begin_signature>
 2a0:	00111023          	sh	ra,0(sp)
 2a4:	00011f03          	lh	t5,0(sp)
 2a8:	ffffdeb7          	lui	t4,0xffffd
 2ac:	cdde8e9b          	addiw	t4,t4,-803
 2b0:	2ddf1063          	bne	t5,t4,570 <fail>
 2b4:	00120213          	addi	tp,tp,1 # 1 <_start+0x1>
 2b8:	00200293          	li	t0,2
 2bc:	fc521ae3          	bne	tp,t0,290 <test_12+0x8>

00000000000002c0 <test_13>:
 2c0:	00d00193          	li	gp,13
 2c4:	00000213          	li	tp,0
 2c8:	ffffc0b7          	lui	ra,0xffffc
 2cc:	ccd0809b          	addiw	ra,ra,-819
 2d0:	00002117          	auipc	sp,0x2
 2d4:	d3010113          	addi	sp,sp,-720 # 2000 <begin_signature>
 2d8:	00000013          	nop
 2dc:	00111123          	sh	ra,2(sp)
 2e0:	00211f03          	lh	t5,2(sp)
 2e4:	ffffceb7          	lui	t4,0xffffc
 2e8:	ccde8e9b          	addiw	t4,t4,-819
 2ec:	29df1263          	bne	t5,t4,570 <fail>
 2f0:	00120213          	addi	tp,tp,1 # 1 <_start+0x1>
 2f4:	00200293          	li	t0,2
 2f8:	fc5218e3          	bne	tp,t0,2c8 <test_13+0x8>

00000000000002fc <test_14>:
 2fc:	00e00193          	li	gp,14
 300:	00000213          	li	tp,0
 304:	ffffc0b7          	lui	ra,0xffffc
 308:	bcc0809b          	addiw	ra,ra,-1076
 30c:	00002117          	auipc	sp,0x2
 310:	cf410113          	addi	sp,sp,-780 # 2000 <begin_signature>
 314:	00000013          	nop
 318:	00000013          	nop
 31c:	00111223          	sh	ra,4(sp)
 320:	00411f03          	lh	t5,4(sp)
 324:	ffffceb7          	lui	t4,0xffffc
 328:	bcce8e9b          	addiw	t4,t4,-1076
 32c:	25df1263          	bne	t5,t4,570 <fail>
 330:	00120213          	addi	tp,tp,1 # 1 <_start+0x1>
 334:	00200293          	li	t0,2
 338:	fc5216e3          	bne	tp,t0,304 <test_14+0x8>

000000000000033c <test_15>:
 33c:	00f00193          	li	gp,15
 340:	00000213          	li	tp,0
 344:	ffffb0b7          	lui	ra,0xffffb
 348:	bbc0809b          	addiw	ra,ra,-1092
 34c:	00000013          	nop
 350:	00002117          	auipc	sp,0x2
 354:	cb010113          	addi	sp,sp,-848 # 2000 <begin_signature>
 358:	00111323          	sh	ra,6(sp)
 35c:	00611f03          	lh	t5,6(sp)
 360:	ffffbeb7          	lui	t4,0xffffb
 364:	bbce8e9b          	addiw	t4,t4,-1092
 368:	21df1463          	bne	t5,t4,570 <fail>
 36c:	00120213          	addi	tp,tp,1 # 1 <_start+0x1>
 370:	00200293          	li	t0,2
 374:	fc5218e3          	bne	tp,t0,344 <test_15+0x8>

0000000000000378 <test_16>:
 378:	01000193          	li	gp,16
 37c:	00000213          	li	tp,0
 380:	ffffb0b7          	lui	ra,0xffffb
 384:	abb0809b          	addiw	ra,ra,-1349
 388:	00000013          	nop
 38c:	00002117          	auipc	sp,0x2
 390:	c7410113          	addi	sp,sp,-908 # 2000 <begin_signature>
 394:	00000013          	nop
 398:	00111423          	sh	ra,8(sp)
 39c:	00811f03          	lh	t5,8(sp)
 3a0:	ffffbeb7          	lui	t4,0xffffb
 3a4:	abbe8e9b          	addiw	t4,t4,-1349
 3a8:	1ddf1463          	bne	t5,t4,570 <fail>
 3ac:	00120213          	addi	tp,tp,1 # 1 <_start+0x1>
 3b0:	00200293          	li	t0,2
 3b4:	fc5216e3          	bne	tp,t0,380 <test_16+0x8>

00000000000003b8 <test_17>:
 3b8:	01100193          	li	gp,17
 3bc:	00000213          	li	tp,0
 3c0:	ffffe0b7          	lui	ra,0xffffe
 3c4:	aab0809b          	addiw	ra,ra,-1365
 3c8:	00000013          	nop
 3cc:	00000013          	nop
 3d0:	00002117          	auipc	sp,0x2
 3d4:	c3010113          	addi	sp,sp,-976 # 2000 <begin_signature>
 3d8:	00111523          	sh	ra,10(sp)
 3dc:	00a11f03          	lh	t5,10(sp)
 3e0:	ffffeeb7          	lui	t4,0xffffe
 3e4:	aabe8e9b          	addiw	t4,t4,-1365
 3e8:	19df1463          	bne	t5,t4,570 <fail>
 3ec:	00120213          	addi	tp,tp,1 # 1 <_start+0x1>
 3f0:	00200293          	li	t0,2
 3f4:	fc5216e3          	bne	tp,t0,3c0 <test_17+0x8>

00000000000003f8 <test_18>:
 3f8:	01200193          	li	gp,18
 3fc:	00000213          	li	tp,0
 400:	00002117          	auipc	sp,0x2
 404:	c0010113          	addi	sp,sp,-1024 # 2000 <begin_signature>
 408:	000020b7          	lui	ra,0x2
 40c:	2330809b          	addiw	ra,ra,563
 410:	00111023          	sh	ra,0(sp)
 414:	00011f03          	lh	t5,0(sp)
 418:	00002eb7          	lui	t4,0x2
 41c:	233e8e9b          	addiw	t4,t4,563
 420:	15df1863          	bne	t5,t4,570 <fail>
 424:	00120213          	addi	tp,tp,1 # 1 <_start+0x1>
 428:	00200293          	li	t0,2
 42c:	fc521ae3          	bne	tp,t0,400 <test_18+0x8>

0000000000000430 <test_19>:
 430:	01300193          	li	gp,19
 434:	00000213          	li	tp,0
 438:	00002117          	auipc	sp,0x2
 43c:	bc810113          	addi	sp,sp,-1080 # 2000 <begin_signature>
 440:	000010b7          	lui	ra,0x1
 444:	2230809b          	addiw	ra,ra,547
 448:	00000013          	nop
 44c:	00111123          	sh	ra,2(sp)
 450:	00211f03          	lh	t5,2(sp)
 454:	00001eb7          	lui	t4,0x1
 458:	223e8e9b          	addiw	t4,t4,547
 45c:	11df1a63          	bne	t5,t4,570 <fail>
 460:	00120213          	addi	tp,tp,1 # 1 <_start+0x1>
 464:	00200293          	li	t0,2
 468:	fc5218e3          	bne	tp,t0,438 <test_19+0x8>

000000000000046c <test_20>:
 46c:	01400193          	li	gp,20
 470:	00000213          	li	tp,0
 474:	00002117          	auipc	sp,0x2
 478:	b8c10113          	addi	sp,sp,-1140 # 2000 <begin_signature>
 47c:	000010b7          	lui	ra,0x1
 480:	1220809b          	addiw	ra,ra,290
 484:	00000013          	nop
 488:	00000013          	nop
 48c:	00111223          	sh	ra,4(sp)
 490:	00411f03          	lh	t5,4(sp)
 494:	00001eb7          	lui	t4,0x1
 498:	122e8e9b          	addiw	t4,t4,290
 49c:	0ddf1a63          	bne	t5,t4,570 <fail>
 4a0:	00120213          	addi	tp,tp,1 # 1 <_start+0x1>
 4a4:	00200293          	li	t0,2
 4a8:	fc5216e3          	bne	tp,t0,474 <test_20+0x8>

00000000000004ac <test_21>:
 4ac:	01500193          	li	gp,21
 4b0:	00000213          	li	tp,0
 4b4:	00002117          	auipc	sp,0x2
 4b8:	b4c10113          	addi	sp,sp,-1204 # 2000 <begin_signature>
 4bc:	00000013          	nop
 4c0:	11200093          	li	ra,274
 4c4:	00111323          	sh	ra,6(sp)
 4c8:	00611f03          	lh	t5,6(sp)
 4cc:	11200e93          	li	t4,274
 4d0:	0bdf1063          	bne	t5,t4,570 <fail>
 4d4:	00120213          	addi	tp,tp,1 # 1 <_start+0x1>
 4d8:	00200293          	li	t0,2
 4dc:	fc521ce3          	bne	tp,t0,4b4 <test_21+0x8>

00000000000004e0 <test_22>:
 4e0:	01600193          	li	gp,22
 4e4:	00000213          	li	tp,0
 4e8:	00002117          	auipc	sp,0x2
 4ec:	b1810113          	addi	sp,sp,-1256 # 2000 <begin_signature>
 4f0:	00000013          	nop
 4f4:	01100093          	li	ra,17
 4f8:	00000013          	nop
 4fc:	00111423          	sh	ra,8(sp)
 500:	00811f03          	lh	t5,8(sp)
 504:	01100e93          	li	t4,17
 508:	07df1463          	bne	t5,t4,570 <fail>
 50c:	00120213          	addi	tp,tp,1 # 1 <_start+0x1>
 510:	00200293          	li	t0,2
 514:	fc521ae3          	bne	tp,t0,4e8 <test_22+0x8>

0000000000000518 <test_23>:
 518:	01700193          	li	gp,23
 51c:	00000213          	li	tp,0
 520:	00002117          	auipc	sp,0x2
 524:	ae010113          	addi	sp,sp,-1312 # 2000 <begin_signature>
 528:	00000013          	nop
 52c:	00000013          	nop
 530:	000030b7          	lui	ra,0x3
 534:	0010809b          	addiw	ra,ra,1
 538:	00111523          	sh	ra,10(sp)
 53c:	00a11f03          	lh	t5,10(sp)
 540:	00003eb7          	lui	t4,0x3
 544:	001e8e9b          	addiw	t4,t4,1
 548:	03df1463          	bne	t5,t4,570 <fail>
 54c:	00120213          	addi	tp,tp,1 # 1 <_start+0x1>
 550:	00200293          	li	t0,2
 554:	fc5216e3          	bne	tp,t0,520 <test_23+0x8>
 558:	0000c537          	lui	a0,0xc
 55c:	eef5051b          	addiw	a0,a0,-273
 560:	00002597          	auipc	a1,0x2
 564:	aa058593          	addi	a1,a1,-1376 # 2000 <begin_signature>
 568:	00a59323          	sh	a0,6(a1)
 56c:	00301c63          	bne	zero,gp,584 <pass>

0000000000000570 <fail>:
 570:	0ff0000f          	fence
 574:	00018063          	beqz	gp,574 <fail+0x4>
 578:	00119193          	slli	gp,gp,0x1
 57c:	0011e193          	ori	gp,gp,1
 580:	00000073          	ecall

0000000000000584 <pass>:
 584:	0ff0000f          	fence
 588:	00100193          	li	gp,1
 58c:	00000073          	ecall
 590:	c0001073          	unimp
 594:	0000                	unimp
 596:	0000                	unimp
 598:	0000                	unimp
 59a:	0000                	unimp
 59c:	0000                	unimp
 59e:	0000                	unimp
 5a0:	0000                	unimp
 5a2:	0000                	unimp
 5a4:	0000                	unimp
 5a6:	0000                	unimp
 5a8:	0000                	unimp
 5aa:	0000                	unimp
 5ac:	0000                	unimp
 5ae:	0000                	unimp
 5b0:	0000                	unimp
 5b2:	0000                	unimp
 5b4:	0000                	unimp
 5b6:	0000                	unimp
 5b8:	0000                	unimp
 5ba:	0000                	unimp
 5bc:	0000                	unimp
 5be:	0000                	unimp
 5c0:	0000                	unimp
 5c2:	0000                	unimp
