
rv64ui-p-lbu:     file format elf64-littleriscv


Disassembly of section .text.init:

0000000000000000 <_start>:
   0:	0480006f          	j	48 <reset_vector>

0000000000000004 <trap_vector>:
   4:	34202f73          	csrr	t5,mcause
   8:	00800f93          	li	t6,8
   c:	03ff0a63          	beq	t5,t6,40 <write_tohost>
  10:	00900f93          	li	t6,9
  14:	03ff0663          	beq	t5,t6,40 <write_tohost>
  18:	00b00f93          	li	t6,11
  1c:	03ff0263          	beq	t5,t6,40 <write_tohost>
  20:	00000f17          	auipc	t5,0x0
  24:	fe0f0f13          	addi	t5,t5,-32 # 0 <_start>
  28:	000f0463          	beqz	t5,30 <trap_vector+0x2c>
  2c:	000f0067          	jr	t5
  30:	34202f73          	csrr	t5,mcause
  34:	000f5463          	bgez	t5,3c <handle_exception>
  38:	0040006f          	j	3c <handle_exception>

000000000000003c <handle_exception>:
  3c:	5391e193          	ori	gp,gp,1337

0000000000000040 <write_tohost>:
  40:	9f019073          	csrw	0x9f0,gp
  44:	ffdff06f          	j	40 <write_tohost>

0000000000000048 <reset_vector>:
  48:	f1402573          	csrr	a0,mhartid
  4c:	00051063          	bnez	a0,4c <reset_vector+0x4>
  50:	00000297          	auipc	t0,0x0
  54:	01028293          	addi	t0,t0,16 # 60 <reset_vector+0x18>
  58:	30529073          	csrw	mtvec,t0
  5c:	18005073          	csrwi	satp,0
  60:	00000297          	auipc	t0,0x0
  64:	01c28293          	addi	t0,t0,28 # 7c <reset_vector+0x34>
  68:	30529073          	csrw	mtvec,t0
  6c:	fff00293          	li	t0,-1
  70:	3b029073          	csrw	pmpaddr0,t0
  74:	01f00293          	li	t0,31
  78:	3a029073          	csrw	pmpcfg0,t0
  7c:	00000297          	auipc	t0,0x0
  80:	01828293          	addi	t0,t0,24 # 94 <reset_vector+0x4c>
  84:	30529073          	csrw	mtvec,t0
  88:	30205073          	csrwi	medeleg,0
  8c:	30305073          	csrwi	mideleg,0
  90:	30405073          	csrwi	mie,0
  94:	00000193          	li	gp,0
  98:	00000297          	auipc	t0,0x0
  9c:	f6c28293          	addi	t0,t0,-148 # 4 <trap_vector>
  a0:	30529073          	csrw	mtvec,t0
  a4:	00100513          	li	a0,1
  a8:	01f51513          	slli	a0,a0,0x1f
  ac:	00055863          	bgez	a0,bc <reset_vector+0x74>
  b0:	0ff0000f          	fence
  b4:	00100193          	li	gp,1
  b8:	00000073          	ecall
  bc:	00000297          	auipc	t0,0x0
  c0:	f4428293          	addi	t0,t0,-188 # 0 <_start>
  c4:	00028e63          	beqz	t0,e0 <reset_vector+0x98>
  c8:	10529073          	csrw	stvec,t0
  cc:	0000b2b7          	lui	t0,0xb
  d0:	1092829b          	addiw	t0,t0,265
  d4:	30229073          	csrw	medeleg,t0
  d8:	30202373          	csrr	t1,medeleg
  dc:	f66290e3          	bne	t0,t1,3c <handle_exception>
  e0:	30005073          	csrwi	mstatus,0
  e4:	00000297          	auipc	t0,0x0
  e8:	01428293          	addi	t0,t0,20 # f8 <test_2>
  ec:	34129073          	csrw	mepc,t0
  f0:	f1402573          	csrr	a0,mhartid
  f4:	30200073          	mret

00000000000000f8 <test_2>:
  f8:	00002097          	auipc	ra,0x2
  fc:	f0808093          	addi	ra,ra,-248 # 2000 <begin_signature>
 100:	0000cf03          	lbu	t5,0(ra)
 104:	0ff00e93          	li	t4,255
 108:	00200193          	li	gp,2
 10c:	23df1c63          	bne	t5,t4,344 <fail>

0000000000000110 <test_3>:
 110:	00002097          	auipc	ra,0x2
 114:	ef008093          	addi	ra,ra,-272 # 2000 <begin_signature>
 118:	0010cf03          	lbu	t5,1(ra)
 11c:	00000e93          	li	t4,0
 120:	00300193          	li	gp,3
 124:	23df1063          	bne	t5,t4,344 <fail>

0000000000000128 <test_4>:
 128:	00002097          	auipc	ra,0x2
 12c:	ed808093          	addi	ra,ra,-296 # 2000 <begin_signature>
 130:	0020cf03          	lbu	t5,2(ra)
 134:	0f000e93          	li	t4,240
 138:	00400193          	li	gp,4
 13c:	21df1463          	bne	t5,t4,344 <fail>

0000000000000140 <test_5>:
 140:	00002097          	auipc	ra,0x2
 144:	ec008093          	addi	ra,ra,-320 # 2000 <begin_signature>
 148:	0030cf03          	lbu	t5,3(ra)
 14c:	00f00e93          	li	t4,15
 150:	00500193          	li	gp,5
 154:	1fdf1863          	bne	t5,t4,344 <fail>

0000000000000158 <test_6>:
 158:	00002097          	auipc	ra,0x2
 15c:	eab08093          	addi	ra,ra,-341 # 2003 <tdat4>
 160:	ffd0cf03          	lbu	t5,-3(ra)
 164:	0ff00e93          	li	t4,255
 168:	00600193          	li	gp,6
 16c:	1ddf1c63          	bne	t5,t4,344 <fail>

0000000000000170 <test_7>:
 170:	00002097          	auipc	ra,0x2
 174:	e9308093          	addi	ra,ra,-365 # 2003 <tdat4>
 178:	ffe0cf03          	lbu	t5,-2(ra)
 17c:	00000e93          	li	t4,0
 180:	00700193          	li	gp,7
 184:	1ddf1063          	bne	t5,t4,344 <fail>

0000000000000188 <test_8>:
 188:	00002097          	auipc	ra,0x2
 18c:	e7b08093          	addi	ra,ra,-389 # 2003 <tdat4>
 190:	fff0cf03          	lbu	t5,-1(ra)
 194:	0f000e93          	li	t4,240
 198:	00800193          	li	gp,8
 19c:	1bdf1463          	bne	t5,t4,344 <fail>

00000000000001a0 <test_9>:
 1a0:	00002097          	auipc	ra,0x2
 1a4:	e6308093          	addi	ra,ra,-413 # 2003 <tdat4>
 1a8:	0000cf03          	lbu	t5,0(ra)
 1ac:	00f00e93          	li	t4,15
 1b0:	00900193          	li	gp,9
 1b4:	19df1863          	bne	t5,t4,344 <fail>

00000000000001b8 <test_10>:
 1b8:	00002097          	auipc	ra,0x2
 1bc:	e4808093          	addi	ra,ra,-440 # 2000 <begin_signature>
 1c0:	fe008093          	addi	ra,ra,-32
 1c4:	0200c283          	lbu	t0,32(ra)
 1c8:	0ff00e93          	li	t4,255
 1cc:	00a00193          	li	gp,10
 1d0:	17d29a63          	bne	t0,t4,344 <fail>

00000000000001d4 <test_11>:
 1d4:	00002097          	auipc	ra,0x2
 1d8:	e2c08093          	addi	ra,ra,-468 # 2000 <begin_signature>
 1dc:	ffa08093          	addi	ra,ra,-6
 1e0:	0070c283          	lbu	t0,7(ra)
 1e4:	00000e93          	li	t4,0
 1e8:	00b00193          	li	gp,11
 1ec:	15d29c63          	bne	t0,t4,344 <fail>

00000000000001f0 <test_12>:
 1f0:	00c00193          	li	gp,12
 1f4:	00000213          	li	tp,0
 1f8:	00002097          	auipc	ra,0x2
 1fc:	e0908093          	addi	ra,ra,-503 # 2001 <tdat2>
 200:	0010cf03          	lbu	t5,1(ra)
 204:	000f0313          	mv	t1,t5
 208:	0f000e93          	li	t4,240
 20c:	13d31c63          	bne	t1,t4,344 <fail>
 210:	00120213          	addi	tp,tp,1 # 1 <_start+0x1>
 214:	00200293          	li	t0,2
 218:	fe5210e3          	bne	tp,t0,1f8 <test_12+0x8>

000000000000021c <test_13>:
 21c:	00d00193          	li	gp,13
 220:	00000213          	li	tp,0
 224:	00002097          	auipc	ra,0x2
 228:	dde08093          	addi	ra,ra,-546 # 2002 <tdat3>
 22c:	0010cf03          	lbu	t5,1(ra)
 230:	00000013          	nop
 234:	000f0313          	mv	t1,t5
 238:	00f00e93          	li	t4,15
 23c:	11d31463          	bne	t1,t4,344 <fail>
 240:	00120213          	addi	tp,tp,1 # 1 <_start+0x1>
 244:	00200293          	li	t0,2
 248:	fc521ee3          	bne	tp,t0,224 <test_13+0x8>

000000000000024c <test_14>:
 24c:	00e00193          	li	gp,14
 250:	00000213          	li	tp,0
 254:	00002097          	auipc	ra,0x2
 258:	dac08093          	addi	ra,ra,-596 # 2000 <begin_signature>
 25c:	0010cf03          	lbu	t5,1(ra)
 260:	00000013          	nop
 264:	00000013          	nop
 268:	000f0313          	mv	t1,t5
 26c:	00000e93          	li	t4,0
 270:	0dd31a63          	bne	t1,t4,344 <fail>
 274:	00120213          	addi	tp,tp,1 # 1 <_start+0x1>
 278:	00200293          	li	t0,2
 27c:	fc521ce3          	bne	tp,t0,254 <test_14+0x8>

0000000000000280 <test_15>:
 280:	00f00193          	li	gp,15
 284:	00000213          	li	tp,0
 288:	00002097          	auipc	ra,0x2
 28c:	d7908093          	addi	ra,ra,-647 # 2001 <tdat2>
 290:	0010cf03          	lbu	t5,1(ra)
 294:	0f000e93          	li	t4,240
 298:	0bdf1663          	bne	t5,t4,344 <fail>
 29c:	00120213          	addi	tp,tp,1 # 1 <_start+0x1>
 2a0:	00200293          	li	t0,2
 2a4:	fe5212e3          	bne	tp,t0,288 <test_15+0x8>

00000000000002a8 <test_16>:
 2a8:	01000193          	li	gp,16
 2ac:	00000213          	li	tp,0
 2b0:	00002097          	auipc	ra,0x2
 2b4:	d5208093          	addi	ra,ra,-686 # 2002 <tdat3>
 2b8:	00000013          	nop
 2bc:	0010cf03          	lbu	t5,1(ra)
 2c0:	00f00e93          	li	t4,15
 2c4:	09df1063          	bne	t5,t4,344 <fail>
 2c8:	00120213          	addi	tp,tp,1 # 1 <_start+0x1>
 2cc:	00200293          	li	t0,2
 2d0:	fe5210e3          	bne	tp,t0,2b0 <test_16+0x8>

00000000000002d4 <test_17>:
 2d4:	01100193          	li	gp,17
 2d8:	00000213          	li	tp,0
 2dc:	00002097          	auipc	ra,0x2
 2e0:	d2408093          	addi	ra,ra,-732 # 2000 <begin_signature>
 2e4:	00000013          	nop
 2e8:	00000013          	nop
 2ec:	0010cf03          	lbu	t5,1(ra)
 2f0:	00000e93          	li	t4,0
 2f4:	05df1863          	bne	t5,t4,344 <fail>
 2f8:	00120213          	addi	tp,tp,1 # 1 <_start+0x1>
 2fc:	00200293          	li	t0,2
 300:	fc521ee3          	bne	tp,t0,2dc <test_17+0x8>

0000000000000304 <test_18>:
 304:	00002297          	auipc	t0,0x2
 308:	cfc28293          	addi	t0,t0,-772 # 2000 <begin_signature>
 30c:	0002c103          	lbu	sp,0(t0)
 310:	00200113          	li	sp,2
 314:	00200e93          	li	t4,2
 318:	01200193          	li	gp,18
 31c:	03d11463          	bne	sp,t4,344 <fail>

0000000000000320 <test_19>:
 320:	00002297          	auipc	t0,0x2
 324:	ce028293          	addi	t0,t0,-800 # 2000 <begin_signature>
 328:	0002c103          	lbu	sp,0(t0)
 32c:	00000013          	nop
 330:	00200113          	li	sp,2
 334:	00200e93          	li	t4,2
 338:	01300193          	li	gp,19
 33c:	01d11463          	bne	sp,t4,344 <fail>
 340:	00301c63          	bne	zero,gp,358 <pass>

0000000000000344 <fail>:
 344:	0ff0000f          	fence
 348:	00018063          	beqz	gp,348 <fail+0x4>
 34c:	00119193          	slli	gp,gp,0x1
 350:	0011e193          	ori	gp,gp,1
 354:	00000073          	ecall

0000000000000358 <pass>:
 358:	0ff0000f          	fence
 35c:	00100193          	li	gp,1
 360:	00000073          	ecall
 364:	c0001073          	unimp
 368:	0000                	unimp
 36a:	0000                	unimp
 36c:	0000                	unimp
 36e:	0000                	unimp
 370:	0000                	unimp
 372:	0000                	unimp
 374:	0000                	unimp
 376:	0000                	unimp
 378:	0000                	unimp
 37a:	0000                	unimp
 37c:	0000                	unimp
 37e:	0000                	unimp
 380:	0000                	unimp
 382:	0000                	unimp
