
rv64ui-p-blt:     file format elf64-littleriscv


Disassembly of section .text:

0000000000000100 <tvec_user>:
 100:	00000f17          	auipc	t5,0x0
 104:	42cf0f13          	addi	t5,t5,1068 # 52c <ecall>
 108:	34102ff3          	csrr	t6,mepc
 10c:	07ff0c63          	beq	t5,t6,184 <write_tohost>
 110:	00000f17          	auipc	t5,0x0
 114:	ef0f0f13          	addi	t5,t5,-272 # 0 <tvec_user-0x100>
 118:	020f1863          	bnez	t5,148 <mrts_routine>
 11c:	00000f17          	auipc	t5,0x0
 120:	ee4f0f13          	addi	t5,t5,-284 # 0 <tvec_user-0x100>
 124:	000f0463          	beqz	t5,12c <tvec_user+0x2c>
 128:	ed9ff06f          	j	0 <tvec_user-0x100>
 12c:	0540006f          	j	180 <other_exception>
 130:	00000013          	nop
 134:	00000013          	nop
 138:	00000013          	nop
 13c:	00000013          	nop

0000000000000140 <tvec_supervisor>:
 140:	34202f73          	csrr	t5,mcause
 144:	fa0f5ee3          	bgez	t5,100 <tvec_user>

0000000000000148 <mrts_routine>:
 148:	30500073          	mrts
 14c:	00000013          	nop
 150:	00000013          	nop
 154:	00000013          	nop
 158:	00000013          	nop
 15c:	00000013          	nop
 160:	00000013          	nop
 164:	00000013          	nop
 168:	00000013          	nop
 16c:	00000013          	nop
 170:	00000013          	nop
 174:	00000013          	nop
 178:	00000013          	nop
 17c:	00000013          	nop

0000000000000180 <other_exception>:
 180:	539e6e13          	ori	t3,t3,1337

0000000000000184 <write_tohost>:
 184:	780e1073          	csrw	mtohost,t3
 188:	ffdff06f          	j	184 <write_tohost>
 18c:	00000013          	nop
 190:	00000013          	nop
 194:	00000013          	nop
 198:	00000013          	nop
 19c:	00000013          	nop
 1a0:	00000013          	nop
 1a4:	00000013          	nop
 1a8:	00000013          	nop
 1ac:	00000013          	nop
 1b0:	00000013          	nop
 1b4:	00000013          	nop
 1b8:	00000013          	nop
 1bc:	00000013          	nop

00000000000001c0 <tvec_machine>:
 1c0:	00000f17          	auipc	t5,0x0
 1c4:	36cf0f13          	addi	t5,t5,876 # 52c <ecall>
 1c8:	34102ff3          	csrr	t6,mepc
 1cc:	fbff0ce3          	beq	t5,t6,184 <write_tohost>
 1d0:	00000f17          	auipc	t5,0x0
 1d4:	e30f0f13          	addi	t5,t5,-464 # 0 <tvec_user-0x100>
 1d8:	000f0463          	beqz	t5,1e0 <tvec_machine+0x20>
 1dc:	e25ff06f          	j	0 <tvec_user-0x100>
 1e0:	fa1ff06f          	j	180 <other_exception>
 1e4:	00000013          	nop
 1e8:	00000013          	nop
 1ec:	00000013          	nop
 1f0:	00000013          	nop
 1f4:	00000013          	nop
 1f8:	00000013          	nop
 1fc:	00000013          	nop

0000000000000200 <_start>:
 200:	f1002573          	csrr	a0,mhartid
 204:	00051063          	bnez	a0,204 <_start+0x4>
 208:	f0002573          	csrr	a0,mcpuid
 20c:	00054863          	bltz	a0,21c <_start+0x1c>
 210:	0ff0000f          	fence
 214:	00100e13          	li	t3,1
 218:	3140006f          	j	52c <ecall>
 21c:	00000e13          	li	t3,0
 220:	00000297          	auipc	t0,0x0
 224:	de028293          	addi	t0,t0,-544 # 0 <tvec_user-0x100>
 228:	00028463          	beqz	t0,230 <_start+0x30>
 22c:	10129073          	csrw	stvec,t0
 230:	1f800293          	li	t0,504
 234:	3002b073          	csrc	mstatus,t0
 238:	00000297          	auipc	t0,0x0
 23c:	01428293          	addi	t0,t0,20 # 24c <test_2>
 240:	34129073          	csrw	mepc,t0
 244:	f1002573          	csrr	a0,mhartid
 248:	10000073          	eret

000000000000024c <test_2>:
 24c:	00200e13          	li	t3,2
 250:	00000093          	li	ra,0
 254:	00100113          	li	sp,1
 258:	0020c663          	blt	ra,sp,264 <test_2+0x18>
 25c:	2bc01863          	bne	zero,t3,50c <fail>
 260:	01c01663          	bne	zero,t3,26c <test_3>
 264:	fe20cee3          	blt	ra,sp,260 <test_2+0x14>
 268:	2bc01263          	bne	zero,t3,50c <fail>

000000000000026c <test_3>:
 26c:	00300e13          	li	t3,3
 270:	fff00093          	li	ra,-1
 274:	00100113          	li	sp,1
 278:	0020c663          	blt	ra,sp,284 <test_3+0x18>
 27c:	29c01863          	bne	zero,t3,50c <fail>
 280:	01c01663          	bne	zero,t3,28c <test_4>
 284:	fe20cee3          	blt	ra,sp,280 <test_3+0x14>
 288:	29c01263          	bne	zero,t3,50c <fail>

000000000000028c <test_4>:
 28c:	00400e13          	li	t3,4
 290:	ffe00093          	li	ra,-2
 294:	fff00113          	li	sp,-1
 298:	0020c663          	blt	ra,sp,2a4 <test_4+0x18>
 29c:	27c01863          	bne	zero,t3,50c <fail>
 2a0:	01c01663          	bne	zero,t3,2ac <test_5>
 2a4:	fe20cee3          	blt	ra,sp,2a0 <test_4+0x14>
 2a8:	27c01263          	bne	zero,t3,50c <fail>

00000000000002ac <test_5>:
 2ac:	00500e13          	li	t3,5
 2b0:	00100093          	li	ra,1
 2b4:	00000113          	li	sp,0
 2b8:	0020c463          	blt	ra,sp,2c0 <test_5+0x14>
 2bc:	01c01463          	bne	zero,t3,2c4 <test_5+0x18>
 2c0:	25c01663          	bne	zero,t3,50c <fail>
 2c4:	fe20cee3          	blt	ra,sp,2c0 <test_5+0x14>

00000000000002c8 <test_6>:
 2c8:	00600e13          	li	t3,6
 2cc:	00100093          	li	ra,1
 2d0:	fff00113          	li	sp,-1
 2d4:	0020c463          	blt	ra,sp,2dc <test_6+0x14>
 2d8:	01c01463          	bne	zero,t3,2e0 <test_6+0x18>
 2dc:	23c01863          	bne	zero,t3,50c <fail>
 2e0:	fe20cee3          	blt	ra,sp,2dc <test_6+0x14>

00000000000002e4 <test_7>:
 2e4:	00700e13          	li	t3,7
 2e8:	fff00093          	li	ra,-1
 2ec:	ffe00113          	li	sp,-2
 2f0:	0020c463          	blt	ra,sp,2f8 <test_7+0x14>
 2f4:	01c01463          	bne	zero,t3,2fc <test_7+0x18>
 2f8:	21c01a63          	bne	zero,t3,50c <fail>
 2fc:	fe20cee3          	blt	ra,sp,2f8 <test_7+0x14>

0000000000000300 <test_8>:
 300:	00800e13          	li	t3,8
 304:	00100093          	li	ra,1
 308:	ffe00113          	li	sp,-2
 30c:	0020c463          	blt	ra,sp,314 <test_8+0x14>
 310:	01c01463          	bne	zero,t3,318 <test_8+0x18>
 314:	1fc01c63          	bne	zero,t3,50c <fail>
 318:	fe20cee3          	blt	ra,sp,314 <test_8+0x14>

000000000000031c <test_9>:
 31c:	00900e13          	li	t3,9
 320:	00000213          	li	tp,0
 324:	00000093          	li	ra,0
 328:	fff00113          	li	sp,-1
 32c:	1e20c063          	blt	ra,sp,50c <fail>
 330:	00120213          	addi	tp,tp,1 # 1 <tvec_user-0xff>
 334:	00200293          	li	t0,2
 338:	fe5216e3          	bne	tp,t0,324 <test_9+0x8>

000000000000033c <test_10>:
 33c:	00a00e13          	li	t3,10
 340:	00000213          	li	tp,0
 344:	00000093          	li	ra,0
 348:	fff00113          	li	sp,-1
 34c:	00000013          	nop
 350:	1a20ce63          	blt	ra,sp,50c <fail>
 354:	00120213          	addi	tp,tp,1 # 1 <tvec_user-0xff>
 358:	00200293          	li	t0,2
 35c:	fe5214e3          	bne	tp,t0,344 <test_10+0x8>

0000000000000360 <test_11>:
 360:	00b00e13          	li	t3,11
 364:	00000213          	li	tp,0
 368:	00000093          	li	ra,0
 36c:	fff00113          	li	sp,-1
 370:	00000013          	nop
 374:	00000013          	nop
 378:	1820ca63          	blt	ra,sp,50c <fail>
 37c:	00120213          	addi	tp,tp,1 # 1 <tvec_user-0xff>
 380:	00200293          	li	t0,2
 384:	fe5212e3          	bne	tp,t0,368 <test_11+0x8>

0000000000000388 <test_12>:
 388:	00c00e13          	li	t3,12
 38c:	00000213          	li	tp,0
 390:	00000093          	li	ra,0
 394:	00000013          	nop
 398:	fff00113          	li	sp,-1
 39c:	1620c863          	blt	ra,sp,50c <fail>
 3a0:	00120213          	addi	tp,tp,1 # 1 <tvec_user-0xff>
 3a4:	00200293          	li	t0,2
 3a8:	fe5214e3          	bne	tp,t0,390 <test_12+0x8>

00000000000003ac <test_13>:
 3ac:	00d00e13          	li	t3,13
 3b0:	00000213          	li	tp,0
 3b4:	00000093          	li	ra,0
 3b8:	00000013          	nop
 3bc:	fff00113          	li	sp,-1
 3c0:	00000013          	nop
 3c4:	1420c463          	blt	ra,sp,50c <fail>
 3c8:	00120213          	addi	tp,tp,1 # 1 <tvec_user-0xff>
 3cc:	00200293          	li	t0,2
 3d0:	fe5212e3          	bne	tp,t0,3b4 <test_13+0x8>

00000000000003d4 <test_14>:
 3d4:	00e00e13          	li	t3,14
 3d8:	00000213          	li	tp,0
 3dc:	00000093          	li	ra,0
 3e0:	00000013          	nop
 3e4:	00000013          	nop
 3e8:	fff00113          	li	sp,-1
 3ec:	1220c063          	blt	ra,sp,50c <fail>
 3f0:	00120213          	addi	tp,tp,1 # 1 <tvec_user-0xff>
 3f4:	00200293          	li	t0,2
 3f8:	fe5212e3          	bne	tp,t0,3dc <test_14+0x8>

00000000000003fc <test_15>:
 3fc:	00f00e13          	li	t3,15
 400:	00000213          	li	tp,0
 404:	00000093          	li	ra,0
 408:	fff00113          	li	sp,-1
 40c:	1020c063          	blt	ra,sp,50c <fail>
 410:	00120213          	addi	tp,tp,1 # 1 <tvec_user-0xff>
 414:	00200293          	li	t0,2
 418:	fe5216e3          	bne	tp,t0,404 <test_15+0x8>

000000000000041c <test_16>:
 41c:	01000e13          	li	t3,16
 420:	00000213          	li	tp,0
 424:	00000093          	li	ra,0
 428:	fff00113          	li	sp,-1
 42c:	00000013          	nop
 430:	0c20ce63          	blt	ra,sp,50c <fail>
 434:	00120213          	addi	tp,tp,1 # 1 <tvec_user-0xff>
 438:	00200293          	li	t0,2
 43c:	fe5214e3          	bne	tp,t0,424 <test_16+0x8>

0000000000000440 <test_17>:
 440:	01100e13          	li	t3,17
 444:	00000213          	li	tp,0
 448:	00000093          	li	ra,0
 44c:	fff00113          	li	sp,-1
 450:	00000013          	nop
 454:	00000013          	nop
 458:	0a20ca63          	blt	ra,sp,50c <fail>
 45c:	00120213          	addi	tp,tp,1 # 1 <tvec_user-0xff>
 460:	00200293          	li	t0,2
 464:	fe5212e3          	bne	tp,t0,448 <test_17+0x8>

0000000000000468 <test_18>:
 468:	01200e13          	li	t3,18
 46c:	00000213          	li	tp,0
 470:	00000093          	li	ra,0
 474:	00000013          	nop
 478:	fff00113          	li	sp,-1
 47c:	0820c863          	blt	ra,sp,50c <fail>
 480:	00120213          	addi	tp,tp,1 # 1 <tvec_user-0xff>
 484:	00200293          	li	t0,2
 488:	fe5214e3          	bne	tp,t0,470 <test_18+0x8>

000000000000048c <test_19>:
 48c:	01300e13          	li	t3,19
 490:	00000213          	li	tp,0
 494:	00000093          	li	ra,0
 498:	00000013          	nop
 49c:	fff00113          	li	sp,-1
 4a0:	00000013          	nop
 4a4:	0620c463          	blt	ra,sp,50c <fail>
 4a8:	00120213          	addi	tp,tp,1 # 1 <tvec_user-0xff>
 4ac:	00200293          	li	t0,2
 4b0:	fe5212e3          	bne	tp,t0,494 <test_19+0x8>

00000000000004b4 <test_20>:
 4b4:	01400e13          	li	t3,20
 4b8:	00000213          	li	tp,0
 4bc:	00000093          	li	ra,0
 4c0:	00000013          	nop
 4c4:	00000013          	nop
 4c8:	fff00113          	li	sp,-1
 4cc:	0420c063          	blt	ra,sp,50c <fail>
 4d0:	00120213          	addi	tp,tp,1 # 1 <tvec_user-0xff>
 4d4:	00200293          	li	t0,2
 4d8:	fe5212e3          	bne	tp,t0,4bc <test_20+0x8>

00000000000004dc <test_21>:
 4dc:	00100093          	li	ra,1
 4e0:	00104a63          	bgtz	ra,4f4 <test_21+0x18>
 4e4:	00108093          	addi	ra,ra,1
 4e8:	00108093          	addi	ra,ra,1
 4ec:	00108093          	addi	ra,ra,1
 4f0:	00108093          	addi	ra,ra,1
 4f4:	00108093          	addi	ra,ra,1
 4f8:	00108093          	addi	ra,ra,1
 4fc:	00300e93          	li	t4,3
 500:	01500e13          	li	t3,21
 504:	01d09463          	bne	ra,t4,50c <fail>
 508:	01c01c63          	bne	zero,t3,520 <pass>

000000000000050c <fail>:
 50c:	0ff0000f          	fence
 510:	000e0063          	beqz	t3,510 <fail+0x4>
 514:	001e1e13          	slli	t3,t3,0x1
 518:	001e6e13          	ori	t3,t3,1
 51c:	0100006f          	j	52c <ecall>

0000000000000520 <pass>:
 520:	0ff0000f          	fence
 524:	00100e13          	li	t3,1
 528:	0040006f          	j	52c <ecall>

000000000000052c <ecall>:
 52c:	00000073          	ecall
 530:	ffdff06f          	j	52c <ecall>
