
rv64ui-p-bge:     file format elf64-littleriscv


Disassembly of section .text:

0000000000000100 <tvec_user>:
 100:	00000f17          	auipc	t5,0x0
 104:	48cf0f13          	addi	t5,t5,1164 # 58c <ecall>
 108:	34102ff3          	csrr	t6,mepc
 10c:	07ff0c63          	beq	t5,t6,184 <write_tohost>
 110:	00000f17          	auipc	t5,0x0
 114:	ef0f0f13          	addi	t5,t5,-272 # 0 <tvec_user-0x100>
 118:	020f1863          	bnez	t5,148 <mrts_routine>
 11c:	00000f17          	auipc	t5,0x0
 120:	ee4f0f13          	addi	t5,t5,-284 # 0 <tvec_user-0x100>
 124:	000f0463          	beqz	t5,12c <tvec_user+0x2c>
 128:	ed9ff06f          	j	0 <tvec_user-0x100>
 12c:	0540006f          	j	180 <other_exception>
 130:	00000013          	nop
 134:	00000013          	nop
 138:	00000013          	nop
 13c:	00000013          	nop

0000000000000140 <tvec_supervisor>:
 140:	34202f73          	csrr	t5,mcause
 144:	fa0f5ee3          	bgez	t5,100 <tvec_user>

0000000000000148 <mrts_routine>:
 148:	30500073          	mrts
 14c:	00000013          	nop
 150:	00000013          	nop
 154:	00000013          	nop
 158:	00000013          	nop
 15c:	00000013          	nop
 160:	00000013          	nop
 164:	00000013          	nop
 168:	00000013          	nop
 16c:	00000013          	nop
 170:	00000013          	nop
 174:	00000013          	nop
 178:	00000013          	nop
 17c:	00000013          	nop

0000000000000180 <other_exception>:
 180:	539e6e13          	ori	t3,t3,1337

0000000000000184 <write_tohost>:
 184:	780e1073          	csrw	mtohost,t3
 188:	ffdff06f          	j	184 <write_tohost>
 18c:	00000013          	nop
 190:	00000013          	nop
 194:	00000013          	nop
 198:	00000013          	nop
 19c:	00000013          	nop
 1a0:	00000013          	nop
 1a4:	00000013          	nop
 1a8:	00000013          	nop
 1ac:	00000013          	nop
 1b0:	00000013          	nop
 1b4:	00000013          	nop
 1b8:	00000013          	nop
 1bc:	00000013          	nop

00000000000001c0 <tvec_machine>:
 1c0:	00000f17          	auipc	t5,0x0
 1c4:	3ccf0f13          	addi	t5,t5,972 # 58c <ecall>
 1c8:	34102ff3          	csrr	t6,mepc
 1cc:	fbff0ce3          	beq	t5,t6,184 <write_tohost>
 1d0:	00000f17          	auipc	t5,0x0
 1d4:	e30f0f13          	addi	t5,t5,-464 # 0 <tvec_user-0x100>
 1d8:	000f0463          	beqz	t5,1e0 <tvec_machine+0x20>
 1dc:	e25ff06f          	j	0 <tvec_user-0x100>
 1e0:	fa1ff06f          	j	180 <other_exception>
 1e4:	00000013          	nop
 1e8:	00000013          	nop
 1ec:	00000013          	nop
 1f0:	00000013          	nop
 1f4:	00000013          	nop
 1f8:	00000013          	nop
 1fc:	00000013          	nop

0000000000000200 <_start>:
 200:	f1002573          	csrr	a0,mhartid
 204:	00051063          	bnez	a0,204 <_start+0x4>
 208:	f0002573          	csrr	a0,mcpuid
 20c:	00054863          	bltz	a0,21c <_start+0x1c>
 210:	0ff0000f          	fence
 214:	00100e13          	li	t3,1
 218:	3740006f          	j	58c <ecall>
 21c:	00000e13          	li	t3,0
 220:	00000297          	auipc	t0,0x0
 224:	de028293          	addi	t0,t0,-544 # 0 <tvec_user-0x100>
 228:	00028463          	beqz	t0,230 <_start+0x30>
 22c:	10129073          	csrw	stvec,t0
 230:	1f800293          	li	t0,504
 234:	3002b073          	csrc	mstatus,t0
 238:	00000297          	auipc	t0,0x0
 23c:	01428293          	addi	t0,t0,20 # 24c <test_2>
 240:	34129073          	csrw	mepc,t0
 244:	f1002573          	csrr	a0,mhartid
 248:	10000073          	eret

000000000000024c <test_2>:
 24c:	00200e13          	li	t3,2
 250:	00000093          	li	ra,0
 254:	00000113          	li	sp,0
 258:	0020d663          	ble	sp,ra,264 <test_2+0x18>
 25c:	31c01863          	bne	zero,t3,56c <fail>
 260:	01c01663          	bne	zero,t3,26c <test_3>
 264:	fe20dee3          	ble	sp,ra,260 <test_2+0x14>
 268:	31c01263          	bne	zero,t3,56c <fail>

000000000000026c <test_3>:
 26c:	00300e13          	li	t3,3
 270:	00100093          	li	ra,1
 274:	00100113          	li	sp,1
 278:	0020d663          	ble	sp,ra,284 <test_3+0x18>
 27c:	2fc01863          	bne	zero,t3,56c <fail>
 280:	01c01663          	bne	zero,t3,28c <test_4>
 284:	fe20dee3          	ble	sp,ra,280 <test_3+0x14>
 288:	2fc01263          	bne	zero,t3,56c <fail>

000000000000028c <test_4>:
 28c:	00400e13          	li	t3,4
 290:	fff00093          	li	ra,-1
 294:	fff00113          	li	sp,-1
 298:	0020d663          	ble	sp,ra,2a4 <test_4+0x18>
 29c:	2dc01863          	bne	zero,t3,56c <fail>
 2a0:	01c01663          	bne	zero,t3,2ac <test_5>
 2a4:	fe20dee3          	ble	sp,ra,2a0 <test_4+0x14>
 2a8:	2dc01263          	bne	zero,t3,56c <fail>

00000000000002ac <test_5>:
 2ac:	00500e13          	li	t3,5
 2b0:	00100093          	li	ra,1
 2b4:	00000113          	li	sp,0
 2b8:	0020d663          	ble	sp,ra,2c4 <test_5+0x18>
 2bc:	2bc01863          	bne	zero,t3,56c <fail>
 2c0:	01c01663          	bne	zero,t3,2cc <test_6>
 2c4:	fe20dee3          	ble	sp,ra,2c0 <test_5+0x14>
 2c8:	2bc01263          	bne	zero,t3,56c <fail>

00000000000002cc <test_6>:
 2cc:	00600e13          	li	t3,6
 2d0:	00100093          	li	ra,1
 2d4:	fff00113          	li	sp,-1
 2d8:	0020d663          	ble	sp,ra,2e4 <test_6+0x18>
 2dc:	29c01863          	bne	zero,t3,56c <fail>
 2e0:	01c01663          	bne	zero,t3,2ec <test_7>
 2e4:	fe20dee3          	ble	sp,ra,2e0 <test_6+0x14>
 2e8:	29c01263          	bne	zero,t3,56c <fail>

00000000000002ec <test_7>:
 2ec:	00700e13          	li	t3,7
 2f0:	fff00093          	li	ra,-1
 2f4:	ffe00113          	li	sp,-2
 2f8:	0020d663          	ble	sp,ra,304 <test_7+0x18>
 2fc:	27c01863          	bne	zero,t3,56c <fail>
 300:	01c01663          	bne	zero,t3,30c <test_8>
 304:	fe20dee3          	ble	sp,ra,300 <test_7+0x14>
 308:	27c01263          	bne	zero,t3,56c <fail>

000000000000030c <test_8>:
 30c:	00800e13          	li	t3,8
 310:	00000093          	li	ra,0
 314:	00100113          	li	sp,1
 318:	0020d463          	ble	sp,ra,320 <test_8+0x14>
 31c:	01c01463          	bne	zero,t3,324 <test_8+0x18>
 320:	25c01663          	bne	zero,t3,56c <fail>
 324:	fe20dee3          	ble	sp,ra,320 <test_8+0x14>

0000000000000328 <test_9>:
 328:	00900e13          	li	t3,9
 32c:	fff00093          	li	ra,-1
 330:	00100113          	li	sp,1
 334:	0020d463          	ble	sp,ra,33c <test_9+0x14>
 338:	01c01463          	bne	zero,t3,340 <test_9+0x18>
 33c:	23c01863          	bne	zero,t3,56c <fail>
 340:	fe20dee3          	ble	sp,ra,33c <test_9+0x14>

0000000000000344 <test_10>:
 344:	00a00e13          	li	t3,10
 348:	ffe00093          	li	ra,-2
 34c:	fff00113          	li	sp,-1
 350:	0020d463          	ble	sp,ra,358 <test_10+0x14>
 354:	01c01463          	bne	zero,t3,35c <test_10+0x18>
 358:	21c01a63          	bne	zero,t3,56c <fail>
 35c:	fe20dee3          	ble	sp,ra,358 <test_10+0x14>

0000000000000360 <test_11>:
 360:	00b00e13          	li	t3,11
 364:	ffe00093          	li	ra,-2
 368:	00100113          	li	sp,1
 36c:	0020d463          	ble	sp,ra,374 <test_11+0x14>
 370:	01c01463          	bne	zero,t3,378 <test_11+0x18>
 374:	1fc01c63          	bne	zero,t3,56c <fail>
 378:	fe20dee3          	ble	sp,ra,374 <test_11+0x14>

000000000000037c <test_12>:
 37c:	00c00e13          	li	t3,12
 380:	00000213          	li	tp,0
 384:	fff00093          	li	ra,-1
 388:	00000113          	li	sp,0
 38c:	1e20d063          	ble	sp,ra,56c <fail>
 390:	00120213          	addi	tp,tp,1 # 1 <tvec_user-0xff>
 394:	00200293          	li	t0,2
 398:	fe5216e3          	bne	tp,t0,384 <test_12+0x8>

000000000000039c <test_13>:
 39c:	00d00e13          	li	t3,13
 3a0:	00000213          	li	tp,0
 3a4:	fff00093          	li	ra,-1
 3a8:	00000113          	li	sp,0
 3ac:	00000013          	nop
 3b0:	1a20de63          	ble	sp,ra,56c <fail>
 3b4:	00120213          	addi	tp,tp,1 # 1 <tvec_user-0xff>
 3b8:	00200293          	li	t0,2
 3bc:	fe5214e3          	bne	tp,t0,3a4 <test_13+0x8>

00000000000003c0 <test_14>:
 3c0:	00e00e13          	li	t3,14
 3c4:	00000213          	li	tp,0
 3c8:	fff00093          	li	ra,-1
 3cc:	00000113          	li	sp,0
 3d0:	00000013          	nop
 3d4:	00000013          	nop
 3d8:	1820da63          	ble	sp,ra,56c <fail>
 3dc:	00120213          	addi	tp,tp,1 # 1 <tvec_user-0xff>
 3e0:	00200293          	li	t0,2
 3e4:	fe5212e3          	bne	tp,t0,3c8 <test_14+0x8>

00000000000003e8 <test_15>:
 3e8:	00f00e13          	li	t3,15
 3ec:	00000213          	li	tp,0
 3f0:	fff00093          	li	ra,-1
 3f4:	00000013          	nop
 3f8:	00000113          	li	sp,0
 3fc:	1620d863          	ble	sp,ra,56c <fail>
 400:	00120213          	addi	tp,tp,1 # 1 <tvec_user-0xff>
 404:	00200293          	li	t0,2
 408:	fe5214e3          	bne	tp,t0,3f0 <test_15+0x8>

000000000000040c <test_16>:
 40c:	01000e13          	li	t3,16
 410:	00000213          	li	tp,0
 414:	fff00093          	li	ra,-1
 418:	00000013          	nop
 41c:	00000113          	li	sp,0
 420:	00000013          	nop
 424:	1420d463          	ble	sp,ra,56c <fail>
 428:	00120213          	addi	tp,tp,1 # 1 <tvec_user-0xff>
 42c:	00200293          	li	t0,2
 430:	fe5212e3          	bne	tp,t0,414 <test_16+0x8>

0000000000000434 <test_17>:
 434:	01100e13          	li	t3,17
 438:	00000213          	li	tp,0
 43c:	fff00093          	li	ra,-1
 440:	00000013          	nop
 444:	00000013          	nop
 448:	00000113          	li	sp,0
 44c:	1220d063          	ble	sp,ra,56c <fail>
 450:	00120213          	addi	tp,tp,1 # 1 <tvec_user-0xff>
 454:	00200293          	li	t0,2
 458:	fe5212e3          	bne	tp,t0,43c <test_17+0x8>

000000000000045c <test_18>:
 45c:	01200e13          	li	t3,18
 460:	00000213          	li	tp,0
 464:	fff00093          	li	ra,-1
 468:	00000113          	li	sp,0
 46c:	1020d063          	ble	sp,ra,56c <fail>
 470:	00120213          	addi	tp,tp,1 # 1 <tvec_user-0xff>
 474:	00200293          	li	t0,2
 478:	fe5216e3          	bne	tp,t0,464 <test_18+0x8>

000000000000047c <test_19>:
 47c:	01300e13          	li	t3,19
 480:	00000213          	li	tp,0
 484:	fff00093          	li	ra,-1
 488:	00000113          	li	sp,0
 48c:	00000013          	nop
 490:	0c20de63          	ble	sp,ra,56c <fail>
 494:	00120213          	addi	tp,tp,1 # 1 <tvec_user-0xff>
 498:	00200293          	li	t0,2
 49c:	fe5214e3          	bne	tp,t0,484 <test_19+0x8>

00000000000004a0 <test_20>:
 4a0:	01400e13          	li	t3,20
 4a4:	00000213          	li	tp,0
 4a8:	fff00093          	li	ra,-1
 4ac:	00000113          	li	sp,0
 4b0:	00000013          	nop
 4b4:	00000013          	nop
 4b8:	0a20da63          	ble	sp,ra,56c <fail>
 4bc:	00120213          	addi	tp,tp,1 # 1 <tvec_user-0xff>
 4c0:	00200293          	li	t0,2
 4c4:	fe5212e3          	bne	tp,t0,4a8 <test_20+0x8>

00000000000004c8 <test_21>:
 4c8:	01500e13          	li	t3,21
 4cc:	00000213          	li	tp,0
 4d0:	fff00093          	li	ra,-1
 4d4:	00000013          	nop
 4d8:	00000113          	li	sp,0
 4dc:	0820d863          	ble	sp,ra,56c <fail>
 4e0:	00120213          	addi	tp,tp,1 # 1 <tvec_user-0xff>
 4e4:	00200293          	li	t0,2
 4e8:	fe5214e3          	bne	tp,t0,4d0 <test_21+0x8>

00000000000004ec <test_22>:
 4ec:	01600e13          	li	t3,22
 4f0:	00000213          	li	tp,0
 4f4:	fff00093          	li	ra,-1
 4f8:	00000013          	nop
 4fc:	00000113          	li	sp,0
 500:	00000013          	nop
 504:	0620d463          	ble	sp,ra,56c <fail>
 508:	00120213          	addi	tp,tp,1 # 1 <tvec_user-0xff>
 50c:	00200293          	li	t0,2
 510:	fe5212e3          	bne	tp,t0,4f4 <test_22+0x8>

0000000000000514 <test_23>:
 514:	01700e13          	li	t3,23
 518:	00000213          	li	tp,0
 51c:	fff00093          	li	ra,-1
 520:	00000013          	nop
 524:	00000013          	nop
 528:	00000113          	li	sp,0
 52c:	0420d063          	ble	sp,ra,56c <fail>
 530:	00120213          	addi	tp,tp,1 # 1 <tvec_user-0xff>
 534:	00200293          	li	t0,2
 538:	fe5212e3          	bne	tp,t0,51c <test_23+0x8>

000000000000053c <test_24>:
 53c:	00100093          	li	ra,1
 540:	0000da63          	bgez	ra,554 <test_24+0x18>
 544:	00108093          	addi	ra,ra,1
 548:	00108093          	addi	ra,ra,1
 54c:	00108093          	addi	ra,ra,1
 550:	00108093          	addi	ra,ra,1
 554:	00108093          	addi	ra,ra,1
 558:	00108093          	addi	ra,ra,1
 55c:	00300e93          	li	t4,3
 560:	01800e13          	li	t3,24
 564:	01d09463          	bne	ra,t4,56c <fail>
 568:	01c01c63          	bne	zero,t3,580 <pass>

000000000000056c <fail>:
 56c:	0ff0000f          	fence
 570:	000e0063          	beqz	t3,570 <fail+0x4>
 574:	001e1e13          	slli	t3,t3,0x1
 578:	001e6e13          	ori	t3,t3,1
 57c:	0100006f          	j	58c <ecall>

0000000000000580 <pass>:
 580:	0ff0000f          	fence
 584:	00100e13          	li	t3,1
 588:	0040006f          	j	58c <ecall>

000000000000058c <ecall>:
 58c:	00000073          	ecall
 590:	ffdff06f          	j	58c <ecall>
