
rv64ui-p-sltiu:     file format elf64-littleriscv


Disassembly of section .text:

0000000000000100 <tvec_user>:
 100:	00000f17          	auipc	t5,0x0
 104:	3e0f0f13          	addi	t5,t5,992 # 4e0 <ecall>
 108:	34102ff3          	csrr	t6,mepc
 10c:	07ff0c63          	beq	t5,t6,184 <write_tohost>
 110:	00000f17          	auipc	t5,0x0
 114:	ef0f0f13          	addi	t5,t5,-272 # 0 <tvec_user-0x100>
 118:	020f1863          	bnez	t5,148 <mrts_routine>
 11c:	00000f17          	auipc	t5,0x0
 120:	ee4f0f13          	addi	t5,t5,-284 # 0 <tvec_user-0x100>
 124:	000f0463          	beqz	t5,12c <tvec_user+0x2c>
 128:	ed9ff06f          	j	0 <tvec_user-0x100>
 12c:	0540006f          	j	180 <other_exception>
 130:	00000013          	nop
 134:	00000013          	nop
 138:	00000013          	nop
 13c:	00000013          	nop

0000000000000140 <tvec_supervisor>:
 140:	34202f73          	csrr	t5,mcause
 144:	fa0f5ee3          	bgez	t5,100 <tvec_user>

0000000000000148 <mrts_routine>:
 148:	30500073          	mrts
 14c:	00000013          	nop
 150:	00000013          	nop
 154:	00000013          	nop
 158:	00000013          	nop
 15c:	00000013          	nop
 160:	00000013          	nop
 164:	00000013          	nop
 168:	00000013          	nop
 16c:	00000013          	nop
 170:	00000013          	nop
 174:	00000013          	nop
 178:	00000013          	nop
 17c:	00000013          	nop

0000000000000180 <other_exception>:
 180:	539e6e13          	ori	t3,t3,1337

0000000000000184 <write_tohost>:
 184:	780e1073          	csrw	mtohost,t3
 188:	ffdff06f          	j	184 <write_tohost>
 18c:	00000013          	nop
 190:	00000013          	nop
 194:	00000013          	nop
 198:	00000013          	nop
 19c:	00000013          	nop
 1a0:	00000013          	nop
 1a4:	00000013          	nop
 1a8:	00000013          	nop
 1ac:	00000013          	nop
 1b0:	00000013          	nop
 1b4:	00000013          	nop
 1b8:	00000013          	nop
 1bc:	00000013          	nop

00000000000001c0 <tvec_machine>:
 1c0:	00000f17          	auipc	t5,0x0
 1c4:	320f0f13          	addi	t5,t5,800 # 4e0 <ecall>
 1c8:	34102ff3          	csrr	t6,mepc
 1cc:	fbff0ce3          	beq	t5,t6,184 <write_tohost>
 1d0:	00000f17          	auipc	t5,0x0
 1d4:	e30f0f13          	addi	t5,t5,-464 # 0 <tvec_user-0x100>
 1d8:	000f0463          	beqz	t5,1e0 <tvec_machine+0x20>
 1dc:	e25ff06f          	j	0 <tvec_user-0x100>
 1e0:	fa1ff06f          	j	180 <other_exception>
 1e4:	00000013          	nop
 1e8:	00000013          	nop
 1ec:	00000013          	nop
 1f0:	00000013          	nop
 1f4:	00000013          	nop
 1f8:	00000013          	nop
 1fc:	00000013          	nop

0000000000000200 <_start>:
 200:	f1002573          	csrr	a0,mhartid
 204:	00051063          	bnez	a0,204 <_start+0x4>
 208:	f0002573          	csrr	a0,mcpuid
 20c:	00054863          	bltz	a0,21c <_start+0x1c>
 210:	0ff0000f          	fence
 214:	00100e13          	li	t3,1
 218:	2c80006f          	j	4e0 <ecall>
 21c:	00000e13          	li	t3,0
 220:	00000297          	auipc	t0,0x0
 224:	de028293          	addi	t0,t0,-544 # 0 <tvec_user-0x100>
 228:	00028463          	beqz	t0,230 <_start+0x30>
 22c:	10129073          	csrw	stvec,t0
 230:	1f800293          	li	t0,504
 234:	3002b073          	csrc	mstatus,t0
 238:	00000297          	auipc	t0,0x0
 23c:	01428293          	addi	t0,t0,20 # 24c <test_2>
 240:	34129073          	csrw	mepc,t0
 244:	f1002573          	csrr	a0,mhartid
 248:	10000073          	eret

000000000000024c <test_2>:
 24c:	00000093          	li	ra,0
 250:	0000b193          	sltiu	gp,ra,0
 254:	00000e93          	li	t4,0
 258:	00200e13          	li	t3,2
 25c:	27d19263          	bne	gp,t4,4c0 <fail>

0000000000000260 <test_3>:
 260:	00100093          	li	ra,1
 264:	0010b193          	seqz	gp,ra
 268:	00000e93          	li	t4,0
 26c:	00300e13          	li	t3,3
 270:	25d19863          	bne	gp,t4,4c0 <fail>

0000000000000274 <test_4>:
 274:	00300093          	li	ra,3
 278:	0070b193          	sltiu	gp,ra,7
 27c:	00100e93          	li	t4,1
 280:	00400e13          	li	t3,4
 284:	23d19e63          	bne	gp,t4,4c0 <fail>

0000000000000288 <test_5>:
 288:	00700093          	li	ra,7
 28c:	0030b193          	sltiu	gp,ra,3
 290:	00000e93          	li	t4,0
 294:	00500e13          	li	t3,5
 298:	23d19463          	bne	gp,t4,4c0 <fail>

000000000000029c <test_6>:
 29c:	00000093          	li	ra,0
 2a0:	8000b193          	sltiu	gp,ra,-2048
 2a4:	00100e93          	li	t4,1
 2a8:	00600e13          	li	t3,6
 2ac:	21d19a63          	bne	gp,t4,4c0 <fail>

00000000000002b0 <test_7>:
 2b0:	800000b7          	lui	ra,0x80000
 2b4:	0000b193          	sltiu	gp,ra,0
 2b8:	00000e93          	li	t4,0
 2bc:	00700e13          	li	t3,7
 2c0:	21d19063          	bne	gp,t4,4c0 <fail>

00000000000002c4 <test_8>:
 2c4:	800000b7          	lui	ra,0x80000
 2c8:	8000b193          	sltiu	gp,ra,-2048
 2cc:	00100e93          	li	t4,1
 2d0:	00800e13          	li	t3,8
 2d4:	1fd19663          	bne	gp,t4,4c0 <fail>

00000000000002d8 <test_9>:
 2d8:	00000093          	li	ra,0
 2dc:	7ff0b193          	sltiu	gp,ra,2047
 2e0:	00100e93          	li	t4,1
 2e4:	00900e13          	li	t3,9
 2e8:	1dd19c63          	bne	gp,t4,4c0 <fail>

00000000000002ec <test_10>:
 2ec:	800000b7          	lui	ra,0x80000
 2f0:	fff0809b          	addiw	ra,ra,-1
 2f4:	0000b193          	sltiu	gp,ra,0
 2f8:	00000e93          	li	t4,0
 2fc:	00a00e13          	li	t3,10
 300:	1dd19063          	bne	gp,t4,4c0 <fail>

0000000000000304 <test_11>:
 304:	800000b7          	lui	ra,0x80000
 308:	fff0809b          	addiw	ra,ra,-1
 30c:	7ff0b193          	sltiu	gp,ra,2047
 310:	00000e93          	li	t4,0
 314:	00b00e13          	li	t3,11
 318:	1bd19463          	bne	gp,t4,4c0 <fail>

000000000000031c <test_12>:
 31c:	800000b7          	lui	ra,0x80000
 320:	7ff0b193          	sltiu	gp,ra,2047
 324:	00000e93          	li	t4,0
 328:	00c00e13          	li	t3,12
 32c:	19d19a63          	bne	gp,t4,4c0 <fail>

0000000000000330 <test_13>:
 330:	800000b7          	lui	ra,0x80000
 334:	fff0809b          	addiw	ra,ra,-1
 338:	8000b193          	sltiu	gp,ra,-2048
 33c:	00100e93          	li	t4,1
 340:	00d00e13          	li	t3,13
 344:	17d19e63          	bne	gp,t4,4c0 <fail>

0000000000000348 <test_14>:
 348:	00000093          	li	ra,0
 34c:	fff0b193          	sltiu	gp,ra,-1
 350:	00100e93          	li	t4,1
 354:	00e00e13          	li	t3,14
 358:	17d19463          	bne	gp,t4,4c0 <fail>

000000000000035c <test_15>:
 35c:	fff00093          	li	ra,-1
 360:	0010b193          	seqz	gp,ra
 364:	00000e93          	li	t4,0
 368:	00f00e13          	li	t3,15
 36c:	15d19a63          	bne	gp,t4,4c0 <fail>

0000000000000370 <test_16>:
 370:	fff00093          	li	ra,-1
 374:	fff0b193          	sltiu	gp,ra,-1
 378:	00000e93          	li	t4,0
 37c:	01000e13          	li	t3,16
 380:	15d19063          	bne	gp,t4,4c0 <fail>

0000000000000384 <test_17>:
 384:	00b00093          	li	ra,11
 388:	00d0b093          	sltiu	ra,ra,13
 38c:	00100e93          	li	t4,1
 390:	01100e13          	li	t3,17
 394:	13d09663          	bne	ra,t4,4c0 <fail>

0000000000000398 <test_18>:
 398:	00000213          	li	tp,0
 39c:	00f00093          	li	ra,15
 3a0:	00a0b193          	sltiu	gp,ra,10
 3a4:	00018313          	mv	t1,gp
 3a8:	00120213          	addi	tp,tp,1 # 1 <tvec_user-0xff>
 3ac:	00200293          	li	t0,2
 3b0:	fe5216e3          	bne	tp,t0,39c <test_18+0x4>
 3b4:	00000e93          	li	t4,0
 3b8:	01200e13          	li	t3,18
 3bc:	11d31263          	bne	t1,t4,4c0 <fail>

00000000000003c0 <test_19>:
 3c0:	00000213          	li	tp,0
 3c4:	00a00093          	li	ra,10
 3c8:	0100b193          	sltiu	gp,ra,16
 3cc:	00000013          	nop
 3d0:	00018313          	mv	t1,gp
 3d4:	00120213          	addi	tp,tp,1 # 1 <tvec_user-0xff>
 3d8:	00200293          	li	t0,2
 3dc:	fe5214e3          	bne	tp,t0,3c4 <test_19+0x4>
 3e0:	00100e93          	li	t4,1
 3e4:	01300e13          	li	t3,19
 3e8:	0dd31c63          	bne	t1,t4,4c0 <fail>

00000000000003ec <test_20>:
 3ec:	00000213          	li	tp,0
 3f0:	01000093          	li	ra,16
 3f4:	0090b193          	sltiu	gp,ra,9
 3f8:	00000013          	nop
 3fc:	00000013          	nop
 400:	00018313          	mv	t1,gp
 404:	00120213          	addi	tp,tp,1 # 1 <tvec_user-0xff>
 408:	00200293          	li	t0,2
 40c:	fe5212e3          	bne	tp,t0,3f0 <test_20+0x4>
 410:	00000e93          	li	t4,0
 414:	01400e13          	li	t3,20
 418:	0bd31463          	bne	t1,t4,4c0 <fail>

000000000000041c <test_21>:
 41c:	00000213          	li	tp,0
 420:	00b00093          	li	ra,11
 424:	00f0b193          	sltiu	gp,ra,15
 428:	00120213          	addi	tp,tp,1 # 1 <tvec_user-0xff>
 42c:	00200293          	li	t0,2
 430:	fe5218e3          	bne	tp,t0,420 <test_21+0x4>
 434:	00100e93          	li	t4,1
 438:	01500e13          	li	t3,21
 43c:	09d19263          	bne	gp,t4,4c0 <fail>

0000000000000440 <test_22>:
 440:	00000213          	li	tp,0
 444:	01100093          	li	ra,17
 448:	00000013          	nop
 44c:	0080b193          	sltiu	gp,ra,8
 450:	00120213          	addi	tp,tp,1 # 1 <tvec_user-0xff>
 454:	00200293          	li	t0,2
 458:	fe5216e3          	bne	tp,t0,444 <test_22+0x4>
 45c:	00000e93          	li	t4,0
 460:	01600e13          	li	t3,22
 464:	05d19e63          	bne	gp,t4,4c0 <fail>

0000000000000468 <test_23>:
 468:	00000213          	li	tp,0
 46c:	00c00093          	li	ra,12
 470:	00000013          	nop
 474:	00000013          	nop
 478:	00e0b193          	sltiu	gp,ra,14
 47c:	00120213          	addi	tp,tp,1 # 1 <tvec_user-0xff>
 480:	00200293          	li	t0,2
 484:	fe5214e3          	bne	tp,t0,46c <test_23+0x4>
 488:	00100e93          	li	t4,1
 48c:	01700e13          	li	t3,23
 490:	03d19863          	bne	gp,t4,4c0 <fail>

0000000000000494 <test_24>:
 494:	fff03093          	sltiu	ra,zero,-1
 498:	00100e93          	li	t4,1
 49c:	01800e13          	li	t3,24
 4a0:	03d09063          	bne	ra,t4,4c0 <fail>

00000000000004a4 <test_25>:
 4a4:	00ff00b7          	lui	ra,0xff0
 4a8:	0ff0809b          	addiw	ra,ra,255
 4ac:	fff0b013          	sltiu	zero,ra,-1
 4b0:	00000e93          	li	t4,0
 4b4:	01900e13          	li	t3,25
 4b8:	01d01463          	bne	zero,t4,4c0 <fail>
 4bc:	01c01c63          	bne	zero,t3,4d4 <pass>

00000000000004c0 <fail>:
 4c0:	0ff0000f          	fence
 4c4:	000e0063          	beqz	t3,4c4 <fail+0x4>
 4c8:	001e1e13          	slli	t3,t3,0x1
 4cc:	001e6e13          	ori	t3,t3,1
 4d0:	0100006f          	j	4e0 <ecall>

00000000000004d4 <pass>:
 4d4:	0ff0000f          	fence
 4d8:	00100e13          	li	t3,1
 4dc:	0040006f          	j	4e0 <ecall>

00000000000004e0 <ecall>:
 4e0:	00000073          	ecall
 4e4:	ffdff06f          	j	4e0 <ecall>
