
rv64ui-p-add:     file format elf64-littleriscv


Disassembly of section .text.init:

0000000000000000 <_start>:
   0:	0480006f          	j	48 <reset_vector>

0000000000000004 <trap_vector>:
   4:	34202f73          	csrr	t5,mcause
   8:	00800f93          	li	t6,8
   c:	03ff0a63          	beq	t5,t6,40 <write_tohost>
  10:	00900f93          	li	t6,9
  14:	03ff0663          	beq	t5,t6,40 <write_tohost>
  18:	00b00f93          	li	t6,11
  1c:	03ff0263          	beq	t5,t6,40 <write_tohost>
  20:	00000f17          	auipc	t5,0x0
  24:	fe0f0f13          	addi	t5,t5,-32 # 0 <_start>
  28:	000f0463          	beqz	t5,30 <trap_vector+0x2c>
  2c:	000f0067          	jr	t5
  30:	34202f73          	csrr	t5,mcause
  34:	000f5463          	bgez	t5,3c <handle_exception>
  38:	0040006f          	j	3c <handle_exception>

000000000000003c <handle_exception>:
  3c:	5391e193          	ori	gp,gp,1337

0000000000000040 <write_tohost>:
  40:	9f019073          	csrw	0x9f0,gp
  44:	ffdff06f          	j	40 <write_tohost>

0000000000000048 <reset_vector>:
  48:	f1402573          	csrr	a0,mhartid
  4c:	00051063          	bnez	a0,4c <reset_vector+0x4>
  50:	00000297          	auipc	t0,0x0
  54:	01028293          	addi	t0,t0,16 # 60 <reset_vector+0x18>
  58:	30529073          	csrw	mtvec,t0
  5c:	18005073          	csrwi	satp,0
  60:	00000297          	auipc	t0,0x0
  64:	01c28293          	addi	t0,t0,28 # 7c <reset_vector+0x34>
  68:	30529073          	csrw	mtvec,t0
  6c:	fff00293          	li	t0,-1
  70:	3b029073          	csrw	pmpaddr0,t0
  74:	01f00293          	li	t0,31
  78:	3a029073          	csrw	pmpcfg0,t0
  7c:	00000297          	auipc	t0,0x0
  80:	01828293          	addi	t0,t0,24 # 94 <reset_vector+0x4c>
  84:	30529073          	csrw	mtvec,t0
  88:	30205073          	csrwi	medeleg,0
  8c:	30305073          	csrwi	mideleg,0
  90:	30405073          	csrwi	mie,0
  94:	00000193          	li	gp,0
  98:	00000297          	auipc	t0,0x0
  9c:	f6c28293          	addi	t0,t0,-148 # 4 <trap_vector>
  a0:	30529073          	csrw	mtvec,t0
  a4:	00100513          	li	a0,1
  a8:	01f51513          	slli	a0,a0,0x1f
  ac:	00055863          	bgez	a0,bc <reset_vector+0x74>
  b0:	0ff0000f          	fence
  b4:	00100193          	li	gp,1
  b8:	00000073          	ecall
  bc:	00000297          	auipc	t0,0x0
  c0:	f4428293          	addi	t0,t0,-188 # 0 <_start>
  c4:	00028e63          	beqz	t0,e0 <reset_vector+0x98>
  c8:	10529073          	csrw	stvec,t0
  cc:	0000b2b7          	lui	t0,0xb
  d0:	1092829b          	addiw	t0,t0,265
  d4:	30229073          	csrw	medeleg,t0
  d8:	30202373          	csrr	t1,medeleg
  dc:	f66290e3          	bne	t0,t1,3c <handle_exception>
  e0:	30005073          	csrwi	mstatus,0
  e4:	00000297          	auipc	t0,0x0
  e8:	01428293          	addi	t0,t0,20 # f8 <test_2>
  ec:	34129073          	csrw	mepc,t0
  f0:	f1402573          	csrr	a0,mhartid
  f4:	30200073          	mret

00000000000000f8 <test_2>:
  f8:	00000093          	li	ra,0
  fc:	00000113          	li	sp,0
 100:	00208f33          	add	t5,ra,sp
 104:	00000e93          	li	t4,0
 108:	00200193          	li	gp,2
 10c:	4fdf1063          	bne	t5,t4,5ec <fail>

0000000000000110 <test_3>:
 110:	00100093          	li	ra,1
 114:	00100113          	li	sp,1
 118:	00208f33          	add	t5,ra,sp
 11c:	00200e93          	li	t4,2
 120:	00300193          	li	gp,3
 124:	4ddf1463          	bne	t5,t4,5ec <fail>

0000000000000128 <test_4>:
 128:	00300093          	li	ra,3
 12c:	00700113          	li	sp,7
 130:	00208f33          	add	t5,ra,sp
 134:	00a00e93          	li	t4,10
 138:	00400193          	li	gp,4
 13c:	4bdf1863          	bne	t5,t4,5ec <fail>

0000000000000140 <test_5>:
 140:	00000093          	li	ra,0
 144:	ffff8137          	lui	sp,0xffff8
 148:	00208f33          	add	t5,ra,sp
 14c:	ffff8eb7          	lui	t4,0xffff8
 150:	00500193          	li	gp,5
 154:	49df1c63          	bne	t5,t4,5ec <fail>

0000000000000158 <test_6>:
 158:	800000b7          	lui	ra,0x80000
 15c:	00000113          	li	sp,0
 160:	00208f33          	add	t5,ra,sp
 164:	80000eb7          	lui	t4,0x80000
 168:	00600193          	li	gp,6
 16c:	49df1063          	bne	t5,t4,5ec <fail>

0000000000000170 <test_7>:
 170:	800000b7          	lui	ra,0x80000
 174:	ffff8137          	lui	sp,0xffff8
 178:	00208f33          	add	t5,ra,sp
 17c:	ffff0eb7          	lui	t4,0xffff0
 180:	fffe8e9b          	addiw	t4,t4,-1
 184:	00fe9e93          	slli	t4,t4,0xf
 188:	00700193          	li	gp,7
 18c:	47df1063          	bne	t5,t4,5ec <fail>

0000000000000190 <test_8>:
 190:	00000093          	li	ra,0
 194:	00008137          	lui	sp,0x8
 198:	fff1011b          	addiw	sp,sp,-1
 19c:	00208f33          	add	t5,ra,sp
 1a0:	00008eb7          	lui	t4,0x8
 1a4:	fffe8e9b          	addiw	t4,t4,-1
 1a8:	00800193          	li	gp,8
 1ac:	45df1063          	bne	t5,t4,5ec <fail>

00000000000001b0 <test_9>:
 1b0:	800000b7          	lui	ra,0x80000
 1b4:	fff0809b          	addiw	ra,ra,-1
 1b8:	00000113          	li	sp,0
 1bc:	00208f33          	add	t5,ra,sp
 1c0:	80000eb7          	lui	t4,0x80000
 1c4:	fffe8e9b          	addiw	t4,t4,-1
 1c8:	00900193          	li	gp,9
 1cc:	43df1063          	bne	t5,t4,5ec <fail>

00000000000001d0 <test_10>:
 1d0:	800000b7          	lui	ra,0x80000
 1d4:	fff0809b          	addiw	ra,ra,-1
 1d8:	00008137          	lui	sp,0x8
 1dc:	fff1011b          	addiw	sp,sp,-1
 1e0:	00208f33          	add	t5,ra,sp
 1e4:	00010eb7          	lui	t4,0x10
 1e8:	001e8e9b          	addiw	t4,t4,1
 1ec:	00fe9e93          	slli	t4,t4,0xf
 1f0:	ffee8e93          	addi	t4,t4,-2 # fffe <_end+0xdffe>
 1f4:	00a00193          	li	gp,10
 1f8:	3fdf1a63          	bne	t5,t4,5ec <fail>

00000000000001fc <test_11>:
 1fc:	800000b7          	lui	ra,0x80000
 200:	00008137          	lui	sp,0x8
 204:	fff1011b          	addiw	sp,sp,-1
 208:	00208f33          	add	t5,ra,sp
 20c:	80008eb7          	lui	t4,0x80008
 210:	fffe8e9b          	addiw	t4,t4,-1
 214:	00b00193          	li	gp,11
 218:	3ddf1a63          	bne	t5,t4,5ec <fail>

000000000000021c <test_12>:
 21c:	800000b7          	lui	ra,0x80000
 220:	fff0809b          	addiw	ra,ra,-1
 224:	ffff8137          	lui	sp,0xffff8
 228:	00208f33          	add	t5,ra,sp
 22c:	7fff8eb7          	lui	t4,0x7fff8
 230:	fffe8e9b          	addiw	t4,t4,-1
 234:	00c00193          	li	gp,12
 238:	3bdf1a63          	bne	t5,t4,5ec <fail>

000000000000023c <test_13>:
 23c:	00000093          	li	ra,0
 240:	fff00113          	li	sp,-1
 244:	00208f33          	add	t5,ra,sp
 248:	fff00e93          	li	t4,-1
 24c:	00d00193          	li	gp,13
 250:	39df1e63          	bne	t5,t4,5ec <fail>

0000000000000254 <test_14>:
 254:	fff00093          	li	ra,-1
 258:	00100113          	li	sp,1
 25c:	00208f33          	add	t5,ra,sp
 260:	00000e93          	li	t4,0
 264:	00e00193          	li	gp,14
 268:	39df1263          	bne	t5,t4,5ec <fail>

000000000000026c <test_15>:
 26c:	fff00093          	li	ra,-1
 270:	fff00113          	li	sp,-1
 274:	00208f33          	add	t5,ra,sp
 278:	ffe00e93          	li	t4,-2
 27c:	00f00193          	li	gp,15
 280:	37df1663          	bne	t5,t4,5ec <fail>

0000000000000284 <test_16>:
 284:	00100093          	li	ra,1
 288:	80000137          	lui	sp,0x80000
 28c:	fff1011b          	addiw	sp,sp,-1
 290:	00208f33          	add	t5,ra,sp
 294:	00100e9b          	addiw	t4,zero,1
 298:	01fe9e93          	slli	t4,t4,0x1f
 29c:	01000193          	li	gp,16
 2a0:	35df1663          	bne	t5,t4,5ec <fail>

00000000000002a4 <test_17>:
 2a4:	00d00093          	li	ra,13
 2a8:	00b00113          	li	sp,11
 2ac:	002080b3          	add	ra,ra,sp
 2b0:	01800e93          	li	t4,24
 2b4:	01100193          	li	gp,17
 2b8:	33d09a63          	bne	ra,t4,5ec <fail>

00000000000002bc <test_18>:
 2bc:	00e00093          	li	ra,14
 2c0:	00b00113          	li	sp,11
 2c4:	00208133          	add	sp,ra,sp
 2c8:	01900e93          	li	t4,25
 2cc:	01200193          	li	gp,18
 2d0:	31d11e63          	bne	sp,t4,5ec <fail>

00000000000002d4 <test_19>:
 2d4:	00d00093          	li	ra,13
 2d8:	001080b3          	add	ra,ra,ra
 2dc:	01a00e93          	li	t4,26
 2e0:	01300193          	li	gp,19
 2e4:	31d09463          	bne	ra,t4,5ec <fail>

00000000000002e8 <test_20>:
 2e8:	00000213          	li	tp,0
 2ec:	00d00093          	li	ra,13
 2f0:	00b00113          	li	sp,11
 2f4:	00208f33          	add	t5,ra,sp
 2f8:	000f0313          	mv	t1,t5
 2fc:	00120213          	addi	tp,tp,1 # 1 <_start+0x1>
 300:	00200293          	li	t0,2
 304:	fe5214e3          	bne	tp,t0,2ec <test_20+0x4>
 308:	01800e93          	li	t4,24
 30c:	01400193          	li	gp,20
 310:	2dd31e63          	bne	t1,t4,5ec <fail>

0000000000000314 <test_21>:
 314:	00000213          	li	tp,0
 318:	00e00093          	li	ra,14
 31c:	00b00113          	li	sp,11
 320:	00208f33          	add	t5,ra,sp
 324:	00000013          	nop
 328:	000f0313          	mv	t1,t5
 32c:	00120213          	addi	tp,tp,1 # 1 <_start+0x1>
 330:	00200293          	li	t0,2
 334:	fe5212e3          	bne	tp,t0,318 <test_21+0x4>
 338:	01900e93          	li	t4,25
 33c:	01500193          	li	gp,21
 340:	2bd31663          	bne	t1,t4,5ec <fail>

0000000000000344 <test_22>:
 344:	00000213          	li	tp,0
 348:	00f00093          	li	ra,15
 34c:	00b00113          	li	sp,11
 350:	00208f33          	add	t5,ra,sp
 354:	00000013          	nop
 358:	00000013          	nop
 35c:	000f0313          	mv	t1,t5
 360:	00120213          	addi	tp,tp,1 # 1 <_start+0x1>
 364:	00200293          	li	t0,2
 368:	fe5210e3          	bne	tp,t0,348 <test_22+0x4>
 36c:	01a00e93          	li	t4,26
 370:	01600193          	li	gp,22
 374:	27d31c63          	bne	t1,t4,5ec <fail>

0000000000000378 <test_23>:
 378:	00000213          	li	tp,0
 37c:	00d00093          	li	ra,13
 380:	00b00113          	li	sp,11
 384:	00208f33          	add	t5,ra,sp
 388:	00120213          	addi	tp,tp,1 # 1 <_start+0x1>
 38c:	00200293          	li	t0,2
 390:	fe5216e3          	bne	tp,t0,37c <test_23+0x4>
 394:	01800e93          	li	t4,24
 398:	01700193          	li	gp,23
 39c:	25df1863          	bne	t5,t4,5ec <fail>

00000000000003a0 <test_24>:
 3a0:	00000213          	li	tp,0
 3a4:	00e00093          	li	ra,14
 3a8:	00b00113          	li	sp,11
 3ac:	00000013          	nop
 3b0:	00208f33          	add	t5,ra,sp
 3b4:	00120213          	addi	tp,tp,1 # 1 <_start+0x1>
 3b8:	00200293          	li	t0,2
 3bc:	fe5214e3          	bne	tp,t0,3a4 <test_24+0x4>
 3c0:	01900e93          	li	t4,25
 3c4:	01800193          	li	gp,24
 3c8:	23df1263          	bne	t5,t4,5ec <fail>

00000000000003cc <test_25>:
 3cc:	00000213          	li	tp,0
 3d0:	00f00093          	li	ra,15
 3d4:	00b00113          	li	sp,11
 3d8:	00000013          	nop
 3dc:	00000013          	nop
 3e0:	00208f33          	add	t5,ra,sp
 3e4:	00120213          	addi	tp,tp,1 # 1 <_start+0x1>
 3e8:	00200293          	li	t0,2
 3ec:	fe5212e3          	bne	tp,t0,3d0 <test_25+0x4>
 3f0:	01a00e93          	li	t4,26
 3f4:	01900193          	li	gp,25
 3f8:	1fdf1a63          	bne	t5,t4,5ec <fail>

00000000000003fc <test_26>:
 3fc:	00000213          	li	tp,0
 400:	00d00093          	li	ra,13
 404:	00000013          	nop
 408:	00b00113          	li	sp,11
 40c:	00208f33          	add	t5,ra,sp
 410:	00120213          	addi	tp,tp,1 # 1 <_start+0x1>
 414:	00200293          	li	t0,2
 418:	fe5214e3          	bne	tp,t0,400 <test_26+0x4>
 41c:	01800e93          	li	t4,24
 420:	01a00193          	li	gp,26
 424:	1ddf1463          	bne	t5,t4,5ec <fail>

0000000000000428 <test_27>:
 428:	00000213          	li	tp,0
 42c:	00e00093          	li	ra,14
 430:	00000013          	nop
 434:	00b00113          	li	sp,11
 438:	00000013          	nop
 43c:	00208f33          	add	t5,ra,sp
 440:	00120213          	addi	tp,tp,1 # 1 <_start+0x1>
 444:	00200293          	li	t0,2
 448:	fe5212e3          	bne	tp,t0,42c <test_27+0x4>
 44c:	01900e93          	li	t4,25
 450:	01b00193          	li	gp,27
 454:	19df1c63          	bne	t5,t4,5ec <fail>

0000000000000458 <test_28>:
 458:	00000213          	li	tp,0
 45c:	00f00093          	li	ra,15
 460:	00000013          	nop
 464:	00000013          	nop
 468:	00b00113          	li	sp,11
 46c:	00208f33          	add	t5,ra,sp
 470:	00120213          	addi	tp,tp,1 # 1 <_start+0x1>
 474:	00200293          	li	t0,2
 478:	fe5212e3          	bne	tp,t0,45c <test_28+0x4>
 47c:	01a00e93          	li	t4,26
 480:	01c00193          	li	gp,28
 484:	17df1463          	bne	t5,t4,5ec <fail>

0000000000000488 <test_29>:
 488:	00000213          	li	tp,0
 48c:	00b00113          	li	sp,11
 490:	00d00093          	li	ra,13
 494:	00208f33          	add	t5,ra,sp
 498:	00120213          	addi	tp,tp,1 # 1 <_start+0x1>
 49c:	00200293          	li	t0,2
 4a0:	fe5216e3          	bne	tp,t0,48c <test_29+0x4>
 4a4:	01800e93          	li	t4,24
 4a8:	01d00193          	li	gp,29
 4ac:	15df1063          	bne	t5,t4,5ec <fail>

00000000000004b0 <test_30>:
 4b0:	00000213          	li	tp,0
 4b4:	00b00113          	li	sp,11
 4b8:	00e00093          	li	ra,14
 4bc:	00000013          	nop
 4c0:	00208f33          	add	t5,ra,sp
 4c4:	00120213          	addi	tp,tp,1 # 1 <_start+0x1>
 4c8:	00200293          	li	t0,2
 4cc:	fe5214e3          	bne	tp,t0,4b4 <test_30+0x4>
 4d0:	01900e93          	li	t4,25
 4d4:	01e00193          	li	gp,30
 4d8:	11df1a63          	bne	t5,t4,5ec <fail>

00000000000004dc <test_31>:
 4dc:	00000213          	li	tp,0
 4e0:	00b00113          	li	sp,11
 4e4:	00f00093          	li	ra,15
 4e8:	00000013          	nop
 4ec:	00000013          	nop
 4f0:	00208f33          	add	t5,ra,sp
 4f4:	00120213          	addi	tp,tp,1 # 1 <_start+0x1>
 4f8:	00200293          	li	t0,2
 4fc:	fe5212e3          	bne	tp,t0,4e0 <test_31+0x4>
 500:	01a00e93          	li	t4,26
 504:	01f00193          	li	gp,31
 508:	0fdf1263          	bne	t5,t4,5ec <fail>

000000000000050c <test_32>:
 50c:	00000213          	li	tp,0
 510:	00b00113          	li	sp,11
 514:	00000013          	nop
 518:	00d00093          	li	ra,13
 51c:	00208f33          	add	t5,ra,sp
 520:	00120213          	addi	tp,tp,1 # 1 <_start+0x1>
 524:	00200293          	li	t0,2
 528:	fe5214e3          	bne	tp,t0,510 <test_32+0x4>
 52c:	01800e93          	li	t4,24
 530:	02000193          	li	gp,32
 534:	0bdf1c63          	bne	t5,t4,5ec <fail>

0000000000000538 <test_33>:
 538:	00000213          	li	tp,0
 53c:	00b00113          	li	sp,11
 540:	00000013          	nop
 544:	00e00093          	li	ra,14
 548:	00000013          	nop
 54c:	00208f33          	add	t5,ra,sp
 550:	00120213          	addi	tp,tp,1 # 1 <_start+0x1>
 554:	00200293          	li	t0,2
 558:	fe5212e3          	bne	tp,t0,53c <test_33+0x4>
 55c:	01900e93          	li	t4,25
 560:	02100193          	li	gp,33
 564:	09df1463          	bne	t5,t4,5ec <fail>

0000000000000568 <test_34>:
 568:	00000213          	li	tp,0
 56c:	00b00113          	li	sp,11
 570:	00000013          	nop
 574:	00000013          	nop
 578:	00f00093          	li	ra,15
 57c:	00208f33          	add	t5,ra,sp
 580:	00120213          	addi	tp,tp,1 # 1 <_start+0x1>
 584:	00200293          	li	t0,2
 588:	fe5212e3          	bne	tp,t0,56c <test_34+0x4>
 58c:	01a00e93          	li	t4,26
 590:	02200193          	li	gp,34
 594:	05df1c63          	bne	t5,t4,5ec <fail>

0000000000000598 <test_35>:
 598:	00f00093          	li	ra,15
 59c:	00100133          	add	sp,zero,ra
 5a0:	00f00e93          	li	t4,15
 5a4:	02300193          	li	gp,35
 5a8:	05d11263          	bne	sp,t4,5ec <fail>

00000000000005ac <test_36>:
 5ac:	02000093          	li	ra,32
 5b0:	00008133          	add	sp,ra,zero
 5b4:	02000e93          	li	t4,32
 5b8:	02400193          	li	gp,36
 5bc:	03d11863          	bne	sp,t4,5ec <fail>

00000000000005c0 <test_37>:
 5c0:	000000b3          	add	ra,zero,zero
 5c4:	00000e93          	li	t4,0
 5c8:	02500193          	li	gp,37
 5cc:	03d09063          	bne	ra,t4,5ec <fail>

00000000000005d0 <test_38>:
 5d0:	01000093          	li	ra,16
 5d4:	01e00113          	li	sp,30
 5d8:	00208033          	add	zero,ra,sp
 5dc:	00000e93          	li	t4,0
 5e0:	02600193          	li	gp,38
 5e4:	01d01463          	bne	zero,t4,5ec <fail>
 5e8:	00301c63          	bne	zero,gp,600 <pass>

00000000000005ec <fail>:
 5ec:	0ff0000f          	fence
 5f0:	00018063          	beqz	gp,5f0 <fail+0x4>
 5f4:	00119193          	slli	gp,gp,0x1
 5f8:	0011e193          	ori	gp,gp,1
 5fc:	00000073          	ecall

0000000000000600 <pass>:
 600:	0ff0000f          	fence
 604:	00100193          	li	gp,1
 608:	00000073          	ecall
 60c:	c0001073          	unimp
 610:	0000                	unimp
 612:	0000                	unimp
 614:	0000                	unimp
 616:	0000                	unimp
 618:	0000                	unimp
 61a:	0000                	unimp
 61c:	0000                	unimp
 61e:	0000                	unimp
 620:	0000                	unimp
 622:	0000                	unimp
 624:	0000                	unimp
 626:	0000                	unimp
 628:	0000                	unimp
 62a:	0000                	unimp
 62c:	0000                	unimp
 62e:	0000                	unimp
 630:	0000                	unimp
 632:	0000                	unimp
 634:	0000                	unimp
 636:	0000                	unimp
 638:	0000                	unimp
 63a:	0000                	unimp
 63c:	0000                	unimp
 63e:	0000                	unimp
 640:	0000                	unimp
 642:	0000                	unimp
