
rv64ui-p-sra:     file format elf64-littleriscv


Disassembly of section .text:

0000000000000100 <tvec_user>:
 100:	00000f17          	auipc	t5,0x0
 104:	708f0f13          	addi	t5,t5,1800 # 808 <ecall>
 108:	34102ff3          	csrr	t6,mepc
 10c:	07ff0c63          	beq	t5,t6,184 <write_tohost>
 110:	00000f17          	auipc	t5,0x0
 114:	ef0f0f13          	addi	t5,t5,-272 # 0 <tvec_user-0x100>
 118:	020f1863          	bnez	t5,148 <mrts_routine>
 11c:	00000f17          	auipc	t5,0x0
 120:	ee4f0f13          	addi	t5,t5,-284 # 0 <tvec_user-0x100>
 124:	000f0463          	beqz	t5,12c <tvec_user+0x2c>
 128:	ed9ff06f          	j	0 <tvec_user-0x100>
 12c:	0540006f          	j	180 <other_exception>
 130:	00000013          	nop
 134:	00000013          	nop
 138:	00000013          	nop
 13c:	00000013          	nop

0000000000000140 <tvec_supervisor>:
 140:	34202f73          	csrr	t5,mcause
 144:	fa0f5ee3          	bgez	t5,100 <tvec_user>

0000000000000148 <mrts_routine>:
 148:	30500073          	mrts
 14c:	00000013          	nop
 150:	00000013          	nop
 154:	00000013          	nop
 158:	00000013          	nop
 15c:	00000013          	nop
 160:	00000013          	nop
 164:	00000013          	nop
 168:	00000013          	nop
 16c:	00000013          	nop
 170:	00000013          	nop
 174:	00000013          	nop
 178:	00000013          	nop
 17c:	00000013          	nop

0000000000000180 <other_exception>:
 180:	539e6e13          	ori	t3,t3,1337

0000000000000184 <write_tohost>:
 184:	780e1073          	csrw	mtohost,t3
 188:	ffdff06f          	j	184 <write_tohost>
 18c:	00000013          	nop
 190:	00000013          	nop
 194:	00000013          	nop
 198:	00000013          	nop
 19c:	00000013          	nop
 1a0:	00000013          	nop
 1a4:	00000013          	nop
 1a8:	00000013          	nop
 1ac:	00000013          	nop
 1b0:	00000013          	nop
 1b4:	00000013          	nop
 1b8:	00000013          	nop
 1bc:	00000013          	nop

00000000000001c0 <tvec_machine>:
 1c0:	00000f17          	auipc	t5,0x0
 1c4:	648f0f13          	addi	t5,t5,1608 # 808 <ecall>
 1c8:	34102ff3          	csrr	t6,mepc
 1cc:	fbff0ce3          	beq	t5,t6,184 <write_tohost>
 1d0:	00000f17          	auipc	t5,0x0
 1d4:	e30f0f13          	addi	t5,t5,-464 # 0 <tvec_user-0x100>
 1d8:	000f0463          	beqz	t5,1e0 <tvec_machine+0x20>
 1dc:	e25ff06f          	j	0 <tvec_user-0x100>
 1e0:	fa1ff06f          	j	180 <other_exception>
 1e4:	00000013          	nop
 1e8:	00000013          	nop
 1ec:	00000013          	nop
 1f0:	00000013          	nop
 1f4:	00000013          	nop
 1f8:	00000013          	nop
 1fc:	00000013          	nop

0000000000000200 <_start>:
 200:	f1002573          	csrr	a0,mhartid
 204:	00051063          	bnez	a0,204 <_start+0x4>
 208:	f0002573          	csrr	a0,mcpuid
 20c:	00054863          	bltz	a0,21c <_start+0x1c>
 210:	0ff0000f          	fence
 214:	00100e13          	li	t3,1
 218:	5f00006f          	j	808 <ecall>
 21c:	00000e13          	li	t3,0
 220:	00000297          	auipc	t0,0x0
 224:	de028293          	addi	t0,t0,-544 # 0 <tvec_user-0x100>
 228:	00028463          	beqz	t0,230 <_start+0x30>
 22c:	10129073          	csrw	stvec,t0
 230:	1f800293          	li	t0,504
 234:	3002b073          	csrc	mstatus,t0
 238:	00000297          	auipc	t0,0x0
 23c:	01428293          	addi	t0,t0,20 # 24c <test_2>
 240:	34129073          	csrw	mepc,t0
 244:	f1002573          	csrr	a0,mhartid
 248:	10000073          	eret

000000000000024c <test_2>:
 24c:	800000b7          	lui	ra,0x80000
 250:	00000113          	li	sp,0
 254:	4020d1b3          	sra	gp,ra,sp
 258:	80000eb7          	lui	t4,0x80000
 25c:	00200e13          	li	t3,2
 260:	59d19463          	bne	gp,t4,7e8 <fail>

0000000000000264 <test_3>:
 264:	800000b7          	lui	ra,0x80000
 268:	00100113          	li	sp,1
 26c:	4020d1b3          	sra	gp,ra,sp
 270:	c0000eb7          	lui	t4,0xc0000
 274:	00300e13          	li	t3,3
 278:	57d19863          	bne	gp,t4,7e8 <fail>

000000000000027c <test_4>:
 27c:	800000b7          	lui	ra,0x80000
 280:	00700113          	li	sp,7
 284:	4020d1b3          	sra	gp,ra,sp
 288:	ff000eb7          	lui	t4,0xff000
 28c:	00400e13          	li	t3,4
 290:	55d19c63          	bne	gp,t4,7e8 <fail>

0000000000000294 <test_5>:
 294:	800000b7          	lui	ra,0x80000
 298:	00e00113          	li	sp,14
 29c:	4020d1b3          	sra	gp,ra,sp
 2a0:	fffe0eb7          	lui	t4,0xfffe0
 2a4:	00500e13          	li	t3,5
 2a8:	55d19063          	bne	gp,t4,7e8 <fail>

00000000000002ac <test_6>:
 2ac:	800000b7          	lui	ra,0x80000
 2b0:	0010809b          	addiw	ra,ra,1
 2b4:	01f00113          	li	sp,31
 2b8:	4020d1b3          	sra	gp,ra,sp
 2bc:	fff00e93          	li	t4,-1
 2c0:	00600e13          	li	t3,6
 2c4:	53d19263          	bne	gp,t4,7e8 <fail>

00000000000002c8 <test_7>:
 2c8:	800000b7          	lui	ra,0x80000
 2cc:	fff0809b          	addiw	ra,ra,-1
 2d0:	00000113          	li	sp,0
 2d4:	4020d1b3          	sra	gp,ra,sp
 2d8:	80000eb7          	lui	t4,0x80000
 2dc:	fffe8e9b          	addiw	t4,t4,-1
 2e0:	00700e13          	li	t3,7
 2e4:	51d19263          	bne	gp,t4,7e8 <fail>

00000000000002e8 <test_8>:
 2e8:	800000b7          	lui	ra,0x80000
 2ec:	fff0809b          	addiw	ra,ra,-1
 2f0:	00100113          	li	sp,1
 2f4:	4020d1b3          	sra	gp,ra,sp
 2f8:	40000eb7          	lui	t4,0x40000
 2fc:	fffe8e9b          	addiw	t4,t4,-1
 300:	00800e13          	li	t3,8
 304:	4fd19263          	bne	gp,t4,7e8 <fail>

0000000000000308 <test_9>:
 308:	800000b7          	lui	ra,0x80000
 30c:	fff0809b          	addiw	ra,ra,-1
 310:	00700113          	li	sp,7
 314:	4020d1b3          	sra	gp,ra,sp
 318:	01000eb7          	lui	t4,0x1000
 31c:	fffe8e9b          	addiw	t4,t4,-1
 320:	00900e13          	li	t3,9
 324:	4dd19263          	bne	gp,t4,7e8 <fail>

0000000000000328 <test_10>:
 328:	800000b7          	lui	ra,0x80000
 32c:	fff0809b          	addiw	ra,ra,-1
 330:	00e00113          	li	sp,14
 334:	4020d1b3          	sra	gp,ra,sp
 338:	00020eb7          	lui	t4,0x20
 33c:	fffe8e9b          	addiw	t4,t4,-1
 340:	00a00e13          	li	t3,10
 344:	4bd19263          	bne	gp,t4,7e8 <fail>

0000000000000348 <test_11>:
 348:	800000b7          	lui	ra,0x80000
 34c:	fff0809b          	addiw	ra,ra,-1
 350:	01f00113          	li	sp,31
 354:	4020d1b3          	sra	gp,ra,sp
 358:	00000e93          	li	t4,0
 35c:	00b00e13          	li	t3,11
 360:	49d19463          	bne	gp,t4,7e8 <fail>

0000000000000364 <test_12>:
 364:	818180b7          	lui	ra,0x81818
 368:	1810809b          	addiw	ra,ra,385
 36c:	00000113          	li	sp,0
 370:	4020d1b3          	sra	gp,ra,sp
 374:	81818eb7          	lui	t4,0x81818
 378:	181e8e9b          	addiw	t4,t4,385
 37c:	00c00e13          	li	t3,12
 380:	47d19463          	bne	gp,t4,7e8 <fail>

0000000000000384 <test_13>:
 384:	818180b7          	lui	ra,0x81818
 388:	1810809b          	addiw	ra,ra,385
 38c:	00100113          	li	sp,1
 390:	4020d1b3          	sra	gp,ra,sp
 394:	c0c0ceb7          	lui	t4,0xc0c0c
 398:	0c0e8e9b          	addiw	t4,t4,192
 39c:	00d00e13          	li	t3,13
 3a0:	45d19463          	bne	gp,t4,7e8 <fail>

00000000000003a4 <test_14>:
 3a4:	818180b7          	lui	ra,0x81818
 3a8:	1810809b          	addiw	ra,ra,385
 3ac:	00700113          	li	sp,7
 3b0:	4020d1b3          	sra	gp,ra,sp
 3b4:	ff030eb7          	lui	t4,0xff030
 3b8:	303e8e9b          	addiw	t4,t4,771
 3bc:	00e00e13          	li	t3,14
 3c0:	43d19463          	bne	gp,t4,7e8 <fail>

00000000000003c4 <test_15>:
 3c4:	818180b7          	lui	ra,0x81818
 3c8:	1810809b          	addiw	ra,ra,385
 3cc:	00e00113          	li	sp,14
 3d0:	4020d1b3          	sra	gp,ra,sp
 3d4:	fffe0eb7          	lui	t4,0xfffe0
 3d8:	606e8e9b          	addiw	t4,t4,1542
 3dc:	00f00e13          	li	t3,15
 3e0:	41d19463          	bne	gp,t4,7e8 <fail>

00000000000003e4 <test_16>:
 3e4:	818180b7          	lui	ra,0x81818
 3e8:	1810809b          	addiw	ra,ra,385
 3ec:	01f00113          	li	sp,31
 3f0:	4020d1b3          	sra	gp,ra,sp
 3f4:	fff00e93          	li	t4,-1
 3f8:	01000e13          	li	t3,16
 3fc:	3fd19663          	bne	gp,t4,7e8 <fail>

0000000000000400 <test_17>:
 400:	818180b7          	lui	ra,0x81818
 404:	1810809b          	addiw	ra,ra,385
 408:	fc000113          	li	sp,-64
 40c:	4020d1b3          	sra	gp,ra,sp
 410:	81818eb7          	lui	t4,0x81818
 414:	181e8e9b          	addiw	t4,t4,385
 418:	01100e13          	li	t3,17
 41c:	3dd19663          	bne	gp,t4,7e8 <fail>

0000000000000420 <test_18>:
 420:	818180b7          	lui	ra,0x81818
 424:	1810809b          	addiw	ra,ra,385
 428:	fc100113          	li	sp,-63
 42c:	4020d1b3          	sra	gp,ra,sp
 430:	c0c0ceb7          	lui	t4,0xc0c0c
 434:	0c0e8e9b          	addiw	t4,t4,192
 438:	01200e13          	li	t3,18
 43c:	3bd19663          	bne	gp,t4,7e8 <fail>

0000000000000440 <test_19>:
 440:	818180b7          	lui	ra,0x81818
 444:	1810809b          	addiw	ra,ra,385
 448:	fc700113          	li	sp,-57
 44c:	4020d1b3          	sra	gp,ra,sp
 450:	ff030eb7          	lui	t4,0xff030
 454:	303e8e9b          	addiw	t4,t4,771
 458:	01300e13          	li	t3,19
 45c:	39d19663          	bne	gp,t4,7e8 <fail>

0000000000000460 <test_20>:
 460:	818180b7          	lui	ra,0x81818
 464:	1810809b          	addiw	ra,ra,385
 468:	fce00113          	li	sp,-50
 46c:	4020d1b3          	sra	gp,ra,sp
 470:	fffe0eb7          	lui	t4,0xfffe0
 474:	606e8e9b          	addiw	t4,t4,1542
 478:	01400e13          	li	t3,20
 47c:	37d19663          	bne	gp,t4,7e8 <fail>

0000000000000480 <test_21>:
 480:	818180b7          	lui	ra,0x81818
 484:	1810809b          	addiw	ra,ra,385
 488:	fff00113          	li	sp,-1
 48c:	4020d1b3          	sra	gp,ra,sp
 490:	fff00e93          	li	t4,-1
 494:	01500e13          	li	t3,21
 498:	35d19863          	bne	gp,t4,7e8 <fail>

000000000000049c <test_22>:
 49c:	800000b7          	lui	ra,0x80000
 4a0:	00700113          	li	sp,7
 4a4:	4020d0b3          	sra	ra,ra,sp
 4a8:	ff000eb7          	lui	t4,0xff000
 4ac:	01600e13          	li	t3,22
 4b0:	33d09c63          	bne	ra,t4,7e8 <fail>

00000000000004b4 <test_23>:
 4b4:	800000b7          	lui	ra,0x80000
 4b8:	00e00113          	li	sp,14
 4bc:	4020d133          	sra	sp,ra,sp
 4c0:	fffe0eb7          	lui	t4,0xfffe0
 4c4:	01700e13          	li	t3,23
 4c8:	33d11063          	bne	sp,t4,7e8 <fail>

00000000000004cc <test_24>:
 4cc:	00700093          	li	ra,7
 4d0:	4010d0b3          	sra	ra,ra,ra
 4d4:	00000e93          	li	t4,0
 4d8:	01800e13          	li	t3,24
 4dc:	31d09663          	bne	ra,t4,7e8 <fail>

00000000000004e0 <test_25>:
 4e0:	00000213          	li	tp,0
 4e4:	800000b7          	lui	ra,0x80000
 4e8:	00700113          	li	sp,7
 4ec:	4020d1b3          	sra	gp,ra,sp
 4f0:	00018313          	mv	t1,gp
 4f4:	00120213          	addi	tp,tp,1 # 1 <tvec_user-0xff>
 4f8:	00200293          	li	t0,2
 4fc:	fe5214e3          	bne	tp,t0,4e4 <test_25+0x4>
 500:	ff000eb7          	lui	t4,0xff000
 504:	01900e13          	li	t3,25
 508:	2fd31063          	bne	t1,t4,7e8 <fail>

000000000000050c <test_26>:
 50c:	00000213          	li	tp,0
 510:	800000b7          	lui	ra,0x80000
 514:	00e00113          	li	sp,14
 518:	4020d1b3          	sra	gp,ra,sp
 51c:	00000013          	nop
 520:	00018313          	mv	t1,gp
 524:	00120213          	addi	tp,tp,1 # 1 <tvec_user-0xff>
 528:	00200293          	li	t0,2
 52c:	fe5212e3          	bne	tp,t0,510 <test_26+0x4>
 530:	fffe0eb7          	lui	t4,0xfffe0
 534:	01a00e13          	li	t3,26
 538:	2bd31863          	bne	t1,t4,7e8 <fail>

000000000000053c <test_27>:
 53c:	00000213          	li	tp,0
 540:	800000b7          	lui	ra,0x80000
 544:	01f00113          	li	sp,31
 548:	4020d1b3          	sra	gp,ra,sp
 54c:	00000013          	nop
 550:	00000013          	nop
 554:	00018313          	mv	t1,gp
 558:	00120213          	addi	tp,tp,1 # 1 <tvec_user-0xff>
 55c:	00200293          	li	t0,2
 560:	fe5210e3          	bne	tp,t0,540 <test_27+0x4>
 564:	fff00e93          	li	t4,-1
 568:	01b00e13          	li	t3,27
 56c:	27d31e63          	bne	t1,t4,7e8 <fail>

0000000000000570 <test_28>:
 570:	00000213          	li	tp,0
 574:	800000b7          	lui	ra,0x80000
 578:	00700113          	li	sp,7
 57c:	4020d1b3          	sra	gp,ra,sp
 580:	00120213          	addi	tp,tp,1 # 1 <tvec_user-0xff>
 584:	00200293          	li	t0,2
 588:	fe5216e3          	bne	tp,t0,574 <test_28+0x4>
 58c:	ff000eb7          	lui	t4,0xff000
 590:	01c00e13          	li	t3,28
 594:	25d19a63          	bne	gp,t4,7e8 <fail>

0000000000000598 <test_29>:
 598:	00000213          	li	tp,0
 59c:	800000b7          	lui	ra,0x80000
 5a0:	00e00113          	li	sp,14
 5a4:	00000013          	nop
 5a8:	4020d1b3          	sra	gp,ra,sp
 5ac:	00120213          	addi	tp,tp,1 # 1 <tvec_user-0xff>
 5b0:	00200293          	li	t0,2
 5b4:	fe5214e3          	bne	tp,t0,59c <test_29+0x4>
 5b8:	fffe0eb7          	lui	t4,0xfffe0
 5bc:	01d00e13          	li	t3,29
 5c0:	23d19463          	bne	gp,t4,7e8 <fail>

00000000000005c4 <test_30>:
 5c4:	00000213          	li	tp,0
 5c8:	800000b7          	lui	ra,0x80000
 5cc:	01f00113          	li	sp,31
 5d0:	00000013          	nop
 5d4:	00000013          	nop
 5d8:	4020d1b3          	sra	gp,ra,sp
 5dc:	00120213          	addi	tp,tp,1 # 1 <tvec_user-0xff>
 5e0:	00200293          	li	t0,2
 5e4:	fe5212e3          	bne	tp,t0,5c8 <test_30+0x4>
 5e8:	fff00e93          	li	t4,-1
 5ec:	01e00e13          	li	t3,30
 5f0:	1fd19c63          	bne	gp,t4,7e8 <fail>

00000000000005f4 <test_31>:
 5f4:	00000213          	li	tp,0
 5f8:	800000b7          	lui	ra,0x80000
 5fc:	00000013          	nop
 600:	00700113          	li	sp,7
 604:	4020d1b3          	sra	gp,ra,sp
 608:	00120213          	addi	tp,tp,1 # 1 <tvec_user-0xff>
 60c:	00200293          	li	t0,2
 610:	fe5214e3          	bne	tp,t0,5f8 <test_31+0x4>
 614:	ff000eb7          	lui	t4,0xff000
 618:	01f00e13          	li	t3,31
 61c:	1dd19663          	bne	gp,t4,7e8 <fail>

0000000000000620 <test_32>:
 620:	00000213          	li	tp,0
 624:	800000b7          	lui	ra,0x80000
 628:	00000013          	nop
 62c:	00e00113          	li	sp,14
 630:	00000013          	nop
 634:	4020d1b3          	sra	gp,ra,sp
 638:	00120213          	addi	tp,tp,1 # 1 <tvec_user-0xff>
 63c:	00200293          	li	t0,2
 640:	fe5212e3          	bne	tp,t0,624 <test_32+0x4>
 644:	fffe0eb7          	lui	t4,0xfffe0
 648:	02000e13          	li	t3,32
 64c:	19d19e63          	bne	gp,t4,7e8 <fail>

0000000000000650 <test_33>:
 650:	00000213          	li	tp,0
 654:	800000b7          	lui	ra,0x80000
 658:	00000013          	nop
 65c:	00000013          	nop
 660:	01f00113          	li	sp,31
 664:	4020d1b3          	sra	gp,ra,sp
 668:	00120213          	addi	tp,tp,1 # 1 <tvec_user-0xff>
 66c:	00200293          	li	t0,2
 670:	fe5212e3          	bne	tp,t0,654 <test_33+0x4>
 674:	fff00e93          	li	t4,-1
 678:	02100e13          	li	t3,33
 67c:	17d19663          	bne	gp,t4,7e8 <fail>

0000000000000680 <test_34>:
 680:	00000213          	li	tp,0
 684:	00700113          	li	sp,7
 688:	800000b7          	lui	ra,0x80000
 68c:	4020d1b3          	sra	gp,ra,sp
 690:	00120213          	addi	tp,tp,1 # 1 <tvec_user-0xff>
 694:	00200293          	li	t0,2
 698:	fe5216e3          	bne	tp,t0,684 <test_34+0x4>
 69c:	ff000eb7          	lui	t4,0xff000
 6a0:	02200e13          	li	t3,34
 6a4:	15d19263          	bne	gp,t4,7e8 <fail>

00000000000006a8 <test_35>:
 6a8:	00000213          	li	tp,0
 6ac:	00e00113          	li	sp,14
 6b0:	800000b7          	lui	ra,0x80000
 6b4:	00000013          	nop
 6b8:	4020d1b3          	sra	gp,ra,sp
 6bc:	00120213          	addi	tp,tp,1 # 1 <tvec_user-0xff>
 6c0:	00200293          	li	t0,2
 6c4:	fe5214e3          	bne	tp,t0,6ac <test_35+0x4>
 6c8:	fffe0eb7          	lui	t4,0xfffe0
 6cc:	02300e13          	li	t3,35
 6d0:	11d19c63          	bne	gp,t4,7e8 <fail>

00000000000006d4 <test_36>:
 6d4:	00000213          	li	tp,0
 6d8:	01f00113          	li	sp,31
 6dc:	800000b7          	lui	ra,0x80000
 6e0:	00000013          	nop
 6e4:	00000013          	nop
 6e8:	4020d1b3          	sra	gp,ra,sp
 6ec:	00120213          	addi	tp,tp,1 # 1 <tvec_user-0xff>
 6f0:	00200293          	li	t0,2
 6f4:	fe5212e3          	bne	tp,t0,6d8 <test_36+0x4>
 6f8:	fff00e93          	li	t4,-1
 6fc:	02400e13          	li	t3,36
 700:	0fd19463          	bne	gp,t4,7e8 <fail>

0000000000000704 <test_37>:
 704:	00000213          	li	tp,0
 708:	00700113          	li	sp,7
 70c:	00000013          	nop
 710:	800000b7          	lui	ra,0x80000
 714:	4020d1b3          	sra	gp,ra,sp
 718:	00120213          	addi	tp,tp,1 # 1 <tvec_user-0xff>
 71c:	00200293          	li	t0,2
 720:	fe5214e3          	bne	tp,t0,708 <test_37+0x4>
 724:	ff000eb7          	lui	t4,0xff000
 728:	02500e13          	li	t3,37
 72c:	0bd19e63          	bne	gp,t4,7e8 <fail>

0000000000000730 <test_38>:
 730:	00000213          	li	tp,0
 734:	00e00113          	li	sp,14
 738:	00000013          	nop
 73c:	800000b7          	lui	ra,0x80000
 740:	00000013          	nop
 744:	4020d1b3          	sra	gp,ra,sp
 748:	00120213          	addi	tp,tp,1 # 1 <tvec_user-0xff>
 74c:	00200293          	li	t0,2
 750:	fe5212e3          	bne	tp,t0,734 <test_38+0x4>
 754:	fffe0eb7          	lui	t4,0xfffe0
 758:	02600e13          	li	t3,38
 75c:	09d19663          	bne	gp,t4,7e8 <fail>

0000000000000760 <test_39>:
 760:	00000213          	li	tp,0
 764:	01f00113          	li	sp,31
 768:	00000013          	nop
 76c:	00000013          	nop
 770:	800000b7          	lui	ra,0x80000
 774:	4020d1b3          	sra	gp,ra,sp
 778:	00120213          	addi	tp,tp,1 # 1 <tvec_user-0xff>
 77c:	00200293          	li	t0,2
 780:	fe5212e3          	bne	tp,t0,764 <test_39+0x4>
 784:	fff00e93          	li	t4,-1
 788:	02700e13          	li	t3,39
 78c:	05d19e63          	bne	gp,t4,7e8 <fail>

0000000000000790 <test_40>:
 790:	00f00093          	li	ra,15
 794:	40105133          	sra	sp,zero,ra
 798:	00000e93          	li	t4,0
 79c:	02800e13          	li	t3,40
 7a0:	05d11463          	bne	sp,t4,7e8 <fail>

00000000000007a4 <test_41>:
 7a4:	02000093          	li	ra,32
 7a8:	4000d133          	sra	sp,ra,zero
 7ac:	02000e93          	li	t4,32
 7b0:	02900e13          	li	t3,41
 7b4:	03d11a63          	bne	sp,t4,7e8 <fail>

00000000000007b8 <test_42>:
 7b8:	400050b3          	sra	ra,zero,zero
 7bc:	00000e93          	li	t4,0
 7c0:	02a00e13          	li	t3,42
 7c4:	03d09263          	bne	ra,t4,7e8 <fail>

00000000000007c8 <test_43>:
 7c8:	40000093          	li	ra,1024
 7cc:	00001137          	lui	sp,0x1
 7d0:	8001011b          	addiw	sp,sp,-2048
 7d4:	4020d033          	sra	zero,ra,sp
 7d8:	00000e93          	li	t4,0
 7dc:	02b00e13          	li	t3,43
 7e0:	01d01463          	bne	zero,t4,7e8 <fail>
 7e4:	01c01c63          	bne	zero,t3,7fc <pass>

00000000000007e8 <fail>:
 7e8:	0ff0000f          	fence
 7ec:	000e0063          	beqz	t3,7ec <fail+0x4>
 7f0:	001e1e13          	slli	t3,t3,0x1
 7f4:	001e6e13          	ori	t3,t3,1
 7f8:	0100006f          	j	808 <ecall>

00000000000007fc <pass>:
 7fc:	0ff0000f          	fence
 800:	00100e13          	li	t3,1
 804:	0040006f          	j	808 <ecall>

0000000000000808 <ecall>:
 808:	00000073          	ecall
 80c:	ffdff06f          	j	808 <ecall>
