
rv64ui-p-subw:     file format elf64-littleriscv


Disassembly of section .text.init:

0000000000000000 <_start>:
   0:	0480006f          	j	48 <reset_vector>

0000000000000004 <trap_vector>:
   4:	34202f73          	csrr	t5,mcause
   8:	00800f93          	li	t6,8
   c:	03ff0a63          	beq	t5,t6,40 <write_tohost>
  10:	00900f93          	li	t6,9
  14:	03ff0663          	beq	t5,t6,40 <write_tohost>
  18:	00b00f93          	li	t6,11
  1c:	03ff0263          	beq	t5,t6,40 <write_tohost>
  20:	00000f17          	auipc	t5,0x0
  24:	fe0f0f13          	addi	t5,t5,-32 # 0 <_start>
  28:	000f0463          	beqz	t5,30 <trap_vector+0x2c>
  2c:	000f0067          	jr	t5
  30:	34202f73          	csrr	t5,mcause
  34:	000f5463          	bgez	t5,3c <handle_exception>
  38:	0040006f          	j	3c <handle_exception>

000000000000003c <handle_exception>:
  3c:	5391e193          	ori	gp,gp,1337

0000000000000040 <write_tohost>:
  40:	9f019073          	csrw	0x9f0,gp
  44:	ffdff06f          	j	40 <write_tohost>

0000000000000048 <reset_vector>:
  48:	f1402573          	csrr	a0,mhartid
  4c:	00051063          	bnez	a0,4c <reset_vector+0x4>
  50:	00000297          	auipc	t0,0x0
  54:	01028293          	addi	t0,t0,16 # 60 <reset_vector+0x18>
  58:	30529073          	csrw	mtvec,t0
  5c:	18005073          	csrwi	satp,0
  60:	00000297          	auipc	t0,0x0
  64:	01c28293          	addi	t0,t0,28 # 7c <reset_vector+0x34>
  68:	30529073          	csrw	mtvec,t0
  6c:	fff00293          	li	t0,-1
  70:	3b029073          	csrw	pmpaddr0,t0
  74:	01f00293          	li	t0,31
  78:	3a029073          	csrw	pmpcfg0,t0
  7c:	00000297          	auipc	t0,0x0
  80:	01828293          	addi	t0,t0,24 # 94 <reset_vector+0x4c>
  84:	30529073          	csrw	mtvec,t0
  88:	30205073          	csrwi	medeleg,0
  8c:	30305073          	csrwi	mideleg,0
  90:	30405073          	csrwi	mie,0
  94:	00000193          	li	gp,0
  98:	00000297          	auipc	t0,0x0
  9c:	f6c28293          	addi	t0,t0,-148 # 4 <trap_vector>
  a0:	30529073          	csrw	mtvec,t0
  a4:	00100513          	li	a0,1
  a8:	01f51513          	slli	a0,a0,0x1f
  ac:	00055863          	bgez	a0,bc <reset_vector+0x74>
  b0:	0ff0000f          	fence
  b4:	00100193          	li	gp,1
  b8:	00000073          	ecall
  bc:	00000297          	auipc	t0,0x0
  c0:	f4428293          	addi	t0,t0,-188 # 0 <_start>
  c4:	00028e63          	beqz	t0,e0 <reset_vector+0x98>
  c8:	10529073          	csrw	stvec,t0
  cc:	0000b2b7          	lui	t0,0xb
  d0:	1092829b          	addiw	t0,t0,265
  d4:	30229073          	csrw	medeleg,t0
  d8:	30202373          	csrr	t1,medeleg
  dc:	f66290e3          	bne	t0,t1,3c <handle_exception>
  e0:	30005073          	csrwi	mstatus,0
  e4:	00000297          	auipc	t0,0x0
  e8:	01428293          	addi	t0,t0,20 # f8 <test_2>
  ec:	34129073          	csrw	mepc,t0
  f0:	f1402573          	csrr	a0,mhartid
  f4:	30200073          	mret

00000000000000f8 <test_2>:
  f8:	00000093          	li	ra,0
  fc:	00000113          	li	sp,0
 100:	40208f3b          	subw	t5,ra,sp
 104:	00000e93          	li	t4,0
 108:	00200193          	li	gp,2
 10c:	4bdf1663          	bne	t5,t4,5b8 <fail>

0000000000000110 <test_3>:
 110:	00100093          	li	ra,1
 114:	00100113          	li	sp,1
 118:	40208f3b          	subw	t5,ra,sp
 11c:	00000e93          	li	t4,0
 120:	00300193          	li	gp,3
 124:	49df1a63          	bne	t5,t4,5b8 <fail>

0000000000000128 <test_4>:
 128:	00300093          	li	ra,3
 12c:	00700113          	li	sp,7
 130:	40208f3b          	subw	t5,ra,sp
 134:	ffc00e93          	li	t4,-4
 138:	00400193          	li	gp,4
 13c:	47df1e63          	bne	t5,t4,5b8 <fail>

0000000000000140 <test_5>:
 140:	00000093          	li	ra,0
 144:	ffff8137          	lui	sp,0xffff8
 148:	40208f3b          	subw	t5,ra,sp
 14c:	00008eb7          	lui	t4,0x8
 150:	00500193          	li	gp,5
 154:	47df1263          	bne	t5,t4,5b8 <fail>

0000000000000158 <test_6>:
 158:	800000b7          	lui	ra,0x80000
 15c:	00000113          	li	sp,0
 160:	40208f3b          	subw	t5,ra,sp
 164:	80000eb7          	lui	t4,0x80000
 168:	00600193          	li	gp,6
 16c:	45df1663          	bne	t5,t4,5b8 <fail>

0000000000000170 <test_7>:
 170:	800000b7          	lui	ra,0x80000
 174:	ffff8137          	lui	sp,0xffff8
 178:	40208f3b          	subw	t5,ra,sp
 17c:	80008eb7          	lui	t4,0x80008
 180:	00700193          	li	gp,7
 184:	43df1a63          	bne	t5,t4,5b8 <fail>

0000000000000188 <test_8>:
 188:	00000093          	li	ra,0
 18c:	00008137          	lui	sp,0x8
 190:	fff1011b          	addiw	sp,sp,-1
 194:	40208f3b          	subw	t5,ra,sp
 198:	ffff8eb7          	lui	t4,0xffff8
 19c:	001e8e9b          	addiw	t4,t4,1
 1a0:	00800193          	li	gp,8
 1a4:	41df1a63          	bne	t5,t4,5b8 <fail>

00000000000001a8 <test_9>:
 1a8:	800000b7          	lui	ra,0x80000
 1ac:	fff0809b          	addiw	ra,ra,-1
 1b0:	00000113          	li	sp,0
 1b4:	40208f3b          	subw	t5,ra,sp
 1b8:	80000eb7          	lui	t4,0x80000
 1bc:	fffe8e9b          	addiw	t4,t4,-1
 1c0:	00900193          	li	gp,9
 1c4:	3fdf1a63          	bne	t5,t4,5b8 <fail>

00000000000001c8 <test_10>:
 1c8:	800000b7          	lui	ra,0x80000
 1cc:	fff0809b          	addiw	ra,ra,-1
 1d0:	00008137          	lui	sp,0x8
 1d4:	fff1011b          	addiw	sp,sp,-1
 1d8:	40208f3b          	subw	t5,ra,sp
 1dc:	7fff8eb7          	lui	t4,0x7fff8
 1e0:	00a00193          	li	gp,10
 1e4:	3ddf1a63          	bne	t5,t4,5b8 <fail>

00000000000001e8 <test_11>:
 1e8:	800000b7          	lui	ra,0x80000
 1ec:	00008137          	lui	sp,0x8
 1f0:	fff1011b          	addiw	sp,sp,-1
 1f4:	40208f3b          	subw	t5,ra,sp
 1f8:	7fff8eb7          	lui	t4,0x7fff8
 1fc:	001e8e9b          	addiw	t4,t4,1
 200:	00b00193          	li	gp,11
 204:	3bdf1a63          	bne	t5,t4,5b8 <fail>

0000000000000208 <test_12>:
 208:	800000b7          	lui	ra,0x80000
 20c:	fff0809b          	addiw	ra,ra,-1
 210:	ffff8137          	lui	sp,0xffff8
 214:	40208f3b          	subw	t5,ra,sp
 218:	80008eb7          	lui	t4,0x80008
 21c:	fffe8e9b          	addiw	t4,t4,-1
 220:	00c00193          	li	gp,12
 224:	39df1a63          	bne	t5,t4,5b8 <fail>

0000000000000228 <test_13>:
 228:	00000093          	li	ra,0
 22c:	fff00113          	li	sp,-1
 230:	40208f3b          	subw	t5,ra,sp
 234:	00100e93          	li	t4,1
 238:	00d00193          	li	gp,13
 23c:	37df1e63          	bne	t5,t4,5b8 <fail>

0000000000000240 <test_14>:
 240:	fff00093          	li	ra,-1
 244:	00100113          	li	sp,1
 248:	40208f3b          	subw	t5,ra,sp
 24c:	ffe00e93          	li	t4,-2
 250:	00e00193          	li	gp,14
 254:	37df1263          	bne	t5,t4,5b8 <fail>

0000000000000258 <test_15>:
 258:	fff00093          	li	ra,-1
 25c:	fff00113          	li	sp,-1
 260:	40208f3b          	subw	t5,ra,sp
 264:	00000e93          	li	t4,0
 268:	00f00193          	li	gp,15
 26c:	35df1663          	bne	t5,t4,5b8 <fail>

0000000000000270 <test_16>:
 270:	00d00093          	li	ra,13
 274:	00b00113          	li	sp,11
 278:	402080bb          	subw	ra,ra,sp
 27c:	00200e93          	li	t4,2
 280:	01000193          	li	gp,16
 284:	33d09a63          	bne	ra,t4,5b8 <fail>

0000000000000288 <test_17>:
 288:	00e00093          	li	ra,14
 28c:	00b00113          	li	sp,11
 290:	4020813b          	subw	sp,ra,sp
 294:	00300e93          	li	t4,3
 298:	01100193          	li	gp,17
 29c:	31d11e63          	bne	sp,t4,5b8 <fail>

00000000000002a0 <test_18>:
 2a0:	00d00093          	li	ra,13
 2a4:	401080bb          	subw	ra,ra,ra
 2a8:	00000e93          	li	t4,0
 2ac:	01200193          	li	gp,18
 2b0:	31d09463          	bne	ra,t4,5b8 <fail>

00000000000002b4 <test_19>:
 2b4:	00000213          	li	tp,0
 2b8:	00d00093          	li	ra,13
 2bc:	00b00113          	li	sp,11
 2c0:	40208f3b          	subw	t5,ra,sp
 2c4:	000f0313          	mv	t1,t5
 2c8:	00120213          	addi	tp,tp,1 # 1 <_start+0x1>
 2cc:	00200293          	li	t0,2
 2d0:	fe5214e3          	bne	tp,t0,2b8 <test_19+0x4>
 2d4:	00200e93          	li	t4,2
 2d8:	01300193          	li	gp,19
 2dc:	2dd31e63          	bne	t1,t4,5b8 <fail>

00000000000002e0 <test_20>:
 2e0:	00000213          	li	tp,0
 2e4:	00e00093          	li	ra,14
 2e8:	00b00113          	li	sp,11
 2ec:	40208f3b          	subw	t5,ra,sp
 2f0:	00000013          	nop
 2f4:	000f0313          	mv	t1,t5
 2f8:	00120213          	addi	tp,tp,1 # 1 <_start+0x1>
 2fc:	00200293          	li	t0,2
 300:	fe5212e3          	bne	tp,t0,2e4 <test_20+0x4>
 304:	00300e93          	li	t4,3
 308:	01400193          	li	gp,20
 30c:	2bd31663          	bne	t1,t4,5b8 <fail>

0000000000000310 <test_21>:
 310:	00000213          	li	tp,0
 314:	00f00093          	li	ra,15
 318:	00b00113          	li	sp,11
 31c:	40208f3b          	subw	t5,ra,sp
 320:	00000013          	nop
 324:	00000013          	nop
 328:	000f0313          	mv	t1,t5
 32c:	00120213          	addi	tp,tp,1 # 1 <_start+0x1>
 330:	00200293          	li	t0,2
 334:	fe5210e3          	bne	tp,t0,314 <test_21+0x4>
 338:	00400e93          	li	t4,4
 33c:	01500193          	li	gp,21
 340:	27d31c63          	bne	t1,t4,5b8 <fail>

0000000000000344 <test_22>:
 344:	00000213          	li	tp,0
 348:	00d00093          	li	ra,13
 34c:	00b00113          	li	sp,11
 350:	40208f3b          	subw	t5,ra,sp
 354:	00120213          	addi	tp,tp,1 # 1 <_start+0x1>
 358:	00200293          	li	t0,2
 35c:	fe5216e3          	bne	tp,t0,348 <test_22+0x4>
 360:	00200e93          	li	t4,2
 364:	01600193          	li	gp,22
 368:	25df1863          	bne	t5,t4,5b8 <fail>

000000000000036c <test_23>:
 36c:	00000213          	li	tp,0
 370:	00e00093          	li	ra,14
 374:	00b00113          	li	sp,11
 378:	00000013          	nop
 37c:	40208f3b          	subw	t5,ra,sp
 380:	00120213          	addi	tp,tp,1 # 1 <_start+0x1>
 384:	00200293          	li	t0,2
 388:	fe5214e3          	bne	tp,t0,370 <test_23+0x4>
 38c:	00300e93          	li	t4,3
 390:	01700193          	li	gp,23
 394:	23df1263          	bne	t5,t4,5b8 <fail>

0000000000000398 <test_24>:
 398:	00000213          	li	tp,0
 39c:	00f00093          	li	ra,15
 3a0:	00b00113          	li	sp,11
 3a4:	00000013          	nop
 3a8:	00000013          	nop
 3ac:	40208f3b          	subw	t5,ra,sp
 3b0:	00120213          	addi	tp,tp,1 # 1 <_start+0x1>
 3b4:	00200293          	li	t0,2
 3b8:	fe5212e3          	bne	tp,t0,39c <test_24+0x4>
 3bc:	00400e93          	li	t4,4
 3c0:	01800193          	li	gp,24
 3c4:	1fdf1a63          	bne	t5,t4,5b8 <fail>

00000000000003c8 <test_25>:
 3c8:	00000213          	li	tp,0
 3cc:	00d00093          	li	ra,13
 3d0:	00000013          	nop
 3d4:	00b00113          	li	sp,11
 3d8:	40208f3b          	subw	t5,ra,sp
 3dc:	00120213          	addi	tp,tp,1 # 1 <_start+0x1>
 3e0:	00200293          	li	t0,2
 3e4:	fe5214e3          	bne	tp,t0,3cc <test_25+0x4>
 3e8:	00200e93          	li	t4,2
 3ec:	01900193          	li	gp,25
 3f0:	1ddf1463          	bne	t5,t4,5b8 <fail>

00000000000003f4 <test_26>:
 3f4:	00000213          	li	tp,0
 3f8:	00e00093          	li	ra,14
 3fc:	00000013          	nop
 400:	00b00113          	li	sp,11
 404:	00000013          	nop
 408:	40208f3b          	subw	t5,ra,sp
 40c:	00120213          	addi	tp,tp,1 # 1 <_start+0x1>
 410:	00200293          	li	t0,2
 414:	fe5212e3          	bne	tp,t0,3f8 <test_26+0x4>
 418:	00300e93          	li	t4,3
 41c:	01a00193          	li	gp,26
 420:	19df1c63          	bne	t5,t4,5b8 <fail>

0000000000000424 <test_27>:
 424:	00000213          	li	tp,0
 428:	00f00093          	li	ra,15
 42c:	00000013          	nop
 430:	00000013          	nop
 434:	00b00113          	li	sp,11
 438:	40208f3b          	subw	t5,ra,sp
 43c:	00120213          	addi	tp,tp,1 # 1 <_start+0x1>
 440:	00200293          	li	t0,2
 444:	fe5212e3          	bne	tp,t0,428 <test_27+0x4>
 448:	00400e93          	li	t4,4
 44c:	01b00193          	li	gp,27
 450:	17df1463          	bne	t5,t4,5b8 <fail>

0000000000000454 <test_28>:
 454:	00000213          	li	tp,0
 458:	00b00113          	li	sp,11
 45c:	00d00093          	li	ra,13
 460:	40208f3b          	subw	t5,ra,sp
 464:	00120213          	addi	tp,tp,1 # 1 <_start+0x1>
 468:	00200293          	li	t0,2
 46c:	fe5216e3          	bne	tp,t0,458 <test_28+0x4>
 470:	00200e93          	li	t4,2
 474:	01c00193          	li	gp,28
 478:	15df1063          	bne	t5,t4,5b8 <fail>

000000000000047c <test_29>:
 47c:	00000213          	li	tp,0
 480:	00b00113          	li	sp,11
 484:	00e00093          	li	ra,14
 488:	00000013          	nop
 48c:	40208f3b          	subw	t5,ra,sp
 490:	00120213          	addi	tp,tp,1 # 1 <_start+0x1>
 494:	00200293          	li	t0,2
 498:	fe5214e3          	bne	tp,t0,480 <test_29+0x4>
 49c:	00300e93          	li	t4,3
 4a0:	01d00193          	li	gp,29
 4a4:	11df1a63          	bne	t5,t4,5b8 <fail>

00000000000004a8 <test_30>:
 4a8:	00000213          	li	tp,0
 4ac:	00b00113          	li	sp,11
 4b0:	00f00093          	li	ra,15
 4b4:	00000013          	nop
 4b8:	00000013          	nop
 4bc:	40208f3b          	subw	t5,ra,sp
 4c0:	00120213          	addi	tp,tp,1 # 1 <_start+0x1>
 4c4:	00200293          	li	t0,2
 4c8:	fe5212e3          	bne	tp,t0,4ac <test_30+0x4>
 4cc:	00400e93          	li	t4,4
 4d0:	01e00193          	li	gp,30
 4d4:	0fdf1263          	bne	t5,t4,5b8 <fail>

00000000000004d8 <test_31>:
 4d8:	00000213          	li	tp,0
 4dc:	00b00113          	li	sp,11
 4e0:	00000013          	nop
 4e4:	00d00093          	li	ra,13
 4e8:	40208f3b          	subw	t5,ra,sp
 4ec:	00120213          	addi	tp,tp,1 # 1 <_start+0x1>
 4f0:	00200293          	li	t0,2
 4f4:	fe5214e3          	bne	tp,t0,4dc <test_31+0x4>
 4f8:	00200e93          	li	t4,2
 4fc:	01f00193          	li	gp,31
 500:	0bdf1c63          	bne	t5,t4,5b8 <fail>

0000000000000504 <test_32>:
 504:	00000213          	li	tp,0
 508:	00b00113          	li	sp,11
 50c:	00000013          	nop
 510:	00e00093          	li	ra,14
 514:	00000013          	nop
 518:	40208f3b          	subw	t5,ra,sp
 51c:	00120213          	addi	tp,tp,1 # 1 <_start+0x1>
 520:	00200293          	li	t0,2
 524:	fe5212e3          	bne	tp,t0,508 <test_32+0x4>
 528:	00300e93          	li	t4,3
 52c:	02000193          	li	gp,32
 530:	09df1463          	bne	t5,t4,5b8 <fail>

0000000000000534 <test_33>:
 534:	00000213          	li	tp,0
 538:	00b00113          	li	sp,11
 53c:	00000013          	nop
 540:	00000013          	nop
 544:	00f00093          	li	ra,15
 548:	40208f3b          	subw	t5,ra,sp
 54c:	00120213          	addi	tp,tp,1 # 1 <_start+0x1>
 550:	00200293          	li	t0,2
 554:	fe5212e3          	bne	tp,t0,538 <test_33+0x4>
 558:	00400e93          	li	t4,4
 55c:	02100193          	li	gp,33
 560:	05df1c63          	bne	t5,t4,5b8 <fail>

0000000000000564 <test_34>:
 564:	ff100093          	li	ra,-15
 568:	4010013b          	negw	sp,ra
 56c:	00f00e93          	li	t4,15
 570:	02200193          	li	gp,34
 574:	05d11263          	bne	sp,t4,5b8 <fail>

0000000000000578 <test_35>:
 578:	02000093          	li	ra,32
 57c:	4000813b          	subw	sp,ra,zero
 580:	02000e93          	li	t4,32
 584:	02300193          	li	gp,35
 588:	03d11863          	bne	sp,t4,5b8 <fail>

000000000000058c <test_36>:
 58c:	400000bb          	negw	ra,zero
 590:	00000e93          	li	t4,0
 594:	02400193          	li	gp,36
 598:	03d09063          	bne	ra,t4,5b8 <fail>

000000000000059c <test_37>:
 59c:	01000093          	li	ra,16
 5a0:	01e00113          	li	sp,30
 5a4:	4020803b          	subw	zero,ra,sp
 5a8:	00000e93          	li	t4,0
 5ac:	02500193          	li	gp,37
 5b0:	01d01463          	bne	zero,t4,5b8 <fail>
 5b4:	00301c63          	bne	zero,gp,5cc <pass>

00000000000005b8 <fail>:
 5b8:	0ff0000f          	fence
 5bc:	00018063          	beqz	gp,5bc <fail+0x4>
 5c0:	00119193          	slli	gp,gp,0x1
 5c4:	0011e193          	ori	gp,gp,1
 5c8:	00000073          	ecall

00000000000005cc <pass>:
 5cc:	0ff0000f          	fence
 5d0:	00100193          	li	gp,1
 5d4:	00000073          	ecall
 5d8:	c0001073          	unimp
 5dc:	0000                	unimp
 5de:	0000                	unimp
 5e0:	0000                	unimp
 5e2:	0000                	unimp
 5e4:	0000                	unimp
 5e6:	0000                	unimp
 5e8:	0000                	unimp
 5ea:	0000                	unimp
 5ec:	0000                	unimp
 5ee:	0000                	unimp
 5f0:	0000                	unimp
 5f2:	0000                	unimp
 5f4:	0000                	unimp
 5f6:	0000                	unimp
 5f8:	0000                	unimp
 5fa:	0000                	unimp
 5fc:	0000                	unimp
 5fe:	0000                	unimp
 600:	0000                	unimp
 602:	0000                	unimp
