
rv64ui-p-subw:     file format elf64-littleriscv


Disassembly of section .text:

0000000000000100 <tvec_user>:
 100:	00000f17          	auipc	t5,0x0
 104:	62cf0f13          	addi	t5,t5,1580 # 72c <ecall>
 108:	34102ff3          	csrr	t6,mepc
 10c:	07ff0c63          	beq	t5,t6,184 <write_tohost>
 110:	00000f17          	auipc	t5,0x0
 114:	ef0f0f13          	addi	t5,t5,-272 # 0 <tvec_user-0x100>
 118:	020f1863          	bnez	t5,148 <mrts_routine>
 11c:	00000f17          	auipc	t5,0x0
 120:	ee4f0f13          	addi	t5,t5,-284 # 0 <tvec_user-0x100>
 124:	000f0463          	beqz	t5,12c <tvec_user+0x2c>
 128:	ed9ff06f          	j	0 <tvec_user-0x100>
 12c:	0540006f          	j	180 <other_exception>
 130:	00000013          	nop
 134:	00000013          	nop
 138:	00000013          	nop
 13c:	00000013          	nop

0000000000000140 <tvec_supervisor>:
 140:	34202f73          	csrr	t5,mcause
 144:	fa0f5ee3          	bgez	t5,100 <tvec_user>

0000000000000148 <mrts_routine>:
 148:	30500073          	mrts
 14c:	00000013          	nop
 150:	00000013          	nop
 154:	00000013          	nop
 158:	00000013          	nop
 15c:	00000013          	nop
 160:	00000013          	nop
 164:	00000013          	nop
 168:	00000013          	nop
 16c:	00000013          	nop
 170:	00000013          	nop
 174:	00000013          	nop
 178:	00000013          	nop
 17c:	00000013          	nop

0000000000000180 <other_exception>:
 180:	539e6e13          	ori	t3,t3,1337

0000000000000184 <write_tohost>:
 184:	780e1073          	csrw	mtohost,t3
 188:	ffdff06f          	j	184 <write_tohost>
 18c:	00000013          	nop
 190:	00000013          	nop
 194:	00000013          	nop
 198:	00000013          	nop
 19c:	00000013          	nop
 1a0:	00000013          	nop
 1a4:	00000013          	nop
 1a8:	00000013          	nop
 1ac:	00000013          	nop
 1b0:	00000013          	nop
 1b4:	00000013          	nop
 1b8:	00000013          	nop
 1bc:	00000013          	nop

00000000000001c0 <tvec_machine>:
 1c0:	00000f17          	auipc	t5,0x0
 1c4:	56cf0f13          	addi	t5,t5,1388 # 72c <ecall>
 1c8:	34102ff3          	csrr	t6,mepc
 1cc:	fbff0ce3          	beq	t5,t6,184 <write_tohost>
 1d0:	00000f17          	auipc	t5,0x0
 1d4:	e30f0f13          	addi	t5,t5,-464 # 0 <tvec_user-0x100>
 1d8:	000f0463          	beqz	t5,1e0 <tvec_machine+0x20>
 1dc:	e25ff06f          	j	0 <tvec_user-0x100>
 1e0:	fa1ff06f          	j	180 <other_exception>
 1e4:	00000013          	nop
 1e8:	00000013          	nop
 1ec:	00000013          	nop
 1f0:	00000013          	nop
 1f4:	00000013          	nop
 1f8:	00000013          	nop
 1fc:	00000013          	nop

0000000000000200 <_start>:
 200:	f1002573          	csrr	a0,mhartid
 204:	00051063          	bnez	a0,204 <_start+0x4>
 208:	f0002573          	csrr	a0,mcpuid
 20c:	00054863          	bltz	a0,21c <_start+0x1c>
 210:	0ff0000f          	fence
 214:	00100e13          	li	t3,1
 218:	5140006f          	j	72c <ecall>
 21c:	00000e13          	li	t3,0
 220:	00000297          	auipc	t0,0x0
 224:	de028293          	addi	t0,t0,-544 # 0 <tvec_user-0x100>
 228:	00028463          	beqz	t0,230 <_start+0x30>
 22c:	10129073          	csrw	stvec,t0
 230:	1f800293          	li	t0,504
 234:	3002b073          	csrc	mstatus,t0
 238:	00000297          	auipc	t0,0x0
 23c:	01428293          	addi	t0,t0,20 # 24c <test_2>
 240:	34129073          	csrw	mepc,t0
 244:	f1002573          	csrr	a0,mhartid
 248:	10000073          	eret

000000000000024c <test_2>:
 24c:	00000093          	li	ra,0
 250:	00000113          	li	sp,0
 254:	402081bb          	subw	gp,ra,sp
 258:	00000e93          	li	t4,0
 25c:	00200e13          	li	t3,2
 260:	4bd19663          	bne	gp,t4,70c <fail>

0000000000000264 <test_3>:
 264:	00100093          	li	ra,1
 268:	00100113          	li	sp,1
 26c:	402081bb          	subw	gp,ra,sp
 270:	00000e93          	li	t4,0
 274:	00300e13          	li	t3,3
 278:	49d19a63          	bne	gp,t4,70c <fail>

000000000000027c <test_4>:
 27c:	00300093          	li	ra,3
 280:	00700113          	li	sp,7
 284:	402081bb          	subw	gp,ra,sp
 288:	ffc00e93          	li	t4,-4
 28c:	00400e13          	li	t3,4
 290:	47d19e63          	bne	gp,t4,70c <fail>

0000000000000294 <test_5>:
 294:	00000093          	li	ra,0
 298:	ffff8137          	lui	sp,0xffff8
 29c:	402081bb          	subw	gp,ra,sp
 2a0:	00008eb7          	lui	t4,0x8
 2a4:	00500e13          	li	t3,5
 2a8:	47d19263          	bne	gp,t4,70c <fail>

00000000000002ac <test_6>:
 2ac:	800000b7          	lui	ra,0x80000
 2b0:	00000113          	li	sp,0
 2b4:	402081bb          	subw	gp,ra,sp
 2b8:	80000eb7          	lui	t4,0x80000
 2bc:	00600e13          	li	t3,6
 2c0:	45d19663          	bne	gp,t4,70c <fail>

00000000000002c4 <test_7>:
 2c4:	800000b7          	lui	ra,0x80000
 2c8:	ffff8137          	lui	sp,0xffff8
 2cc:	402081bb          	subw	gp,ra,sp
 2d0:	80008eb7          	lui	t4,0x80008
 2d4:	00700e13          	li	t3,7
 2d8:	43d19a63          	bne	gp,t4,70c <fail>

00000000000002dc <test_8>:
 2dc:	00000093          	li	ra,0
 2e0:	00008137          	lui	sp,0x8
 2e4:	fff1011b          	addiw	sp,sp,-1
 2e8:	402081bb          	subw	gp,ra,sp
 2ec:	ffff8eb7          	lui	t4,0xffff8
 2f0:	001e8e9b          	addiw	t4,t4,1
 2f4:	00800e13          	li	t3,8
 2f8:	41d19a63          	bne	gp,t4,70c <fail>

00000000000002fc <test_9>:
 2fc:	800000b7          	lui	ra,0x80000
 300:	fff0809b          	addiw	ra,ra,-1
 304:	00000113          	li	sp,0
 308:	402081bb          	subw	gp,ra,sp
 30c:	80000eb7          	lui	t4,0x80000
 310:	fffe8e9b          	addiw	t4,t4,-1
 314:	00900e13          	li	t3,9
 318:	3fd19a63          	bne	gp,t4,70c <fail>

000000000000031c <test_10>:
 31c:	800000b7          	lui	ra,0x80000
 320:	fff0809b          	addiw	ra,ra,-1
 324:	00008137          	lui	sp,0x8
 328:	fff1011b          	addiw	sp,sp,-1
 32c:	402081bb          	subw	gp,ra,sp
 330:	7fff8eb7          	lui	t4,0x7fff8
 334:	00a00e13          	li	t3,10
 338:	3dd19a63          	bne	gp,t4,70c <fail>

000000000000033c <test_11>:
 33c:	800000b7          	lui	ra,0x80000
 340:	00008137          	lui	sp,0x8
 344:	fff1011b          	addiw	sp,sp,-1
 348:	402081bb          	subw	gp,ra,sp
 34c:	7fff8eb7          	lui	t4,0x7fff8
 350:	001e8e9b          	addiw	t4,t4,1
 354:	00b00e13          	li	t3,11
 358:	3bd19a63          	bne	gp,t4,70c <fail>

000000000000035c <test_12>:
 35c:	800000b7          	lui	ra,0x80000
 360:	fff0809b          	addiw	ra,ra,-1
 364:	ffff8137          	lui	sp,0xffff8
 368:	402081bb          	subw	gp,ra,sp
 36c:	80008eb7          	lui	t4,0x80008
 370:	fffe8e9b          	addiw	t4,t4,-1
 374:	00c00e13          	li	t3,12
 378:	39d19a63          	bne	gp,t4,70c <fail>

000000000000037c <test_13>:
 37c:	00000093          	li	ra,0
 380:	fff00113          	li	sp,-1
 384:	402081bb          	subw	gp,ra,sp
 388:	00100e93          	li	t4,1
 38c:	00d00e13          	li	t3,13
 390:	37d19e63          	bne	gp,t4,70c <fail>

0000000000000394 <test_14>:
 394:	fff00093          	li	ra,-1
 398:	00100113          	li	sp,1
 39c:	402081bb          	subw	gp,ra,sp
 3a0:	ffe00e93          	li	t4,-2
 3a4:	00e00e13          	li	t3,14
 3a8:	37d19263          	bne	gp,t4,70c <fail>

00000000000003ac <test_15>:
 3ac:	fff00093          	li	ra,-1
 3b0:	fff00113          	li	sp,-1
 3b4:	402081bb          	subw	gp,ra,sp
 3b8:	00000e93          	li	t4,0
 3bc:	00f00e13          	li	t3,15
 3c0:	35d19663          	bne	gp,t4,70c <fail>

00000000000003c4 <test_16>:
 3c4:	00d00093          	li	ra,13
 3c8:	00b00113          	li	sp,11
 3cc:	402080bb          	subw	ra,ra,sp
 3d0:	00200e93          	li	t4,2
 3d4:	01000e13          	li	t3,16
 3d8:	33d09a63          	bne	ra,t4,70c <fail>

00000000000003dc <test_17>:
 3dc:	00e00093          	li	ra,14
 3e0:	00b00113          	li	sp,11
 3e4:	4020813b          	subw	sp,ra,sp
 3e8:	00300e93          	li	t4,3
 3ec:	01100e13          	li	t3,17
 3f0:	31d11e63          	bne	sp,t4,70c <fail>

00000000000003f4 <test_18>:
 3f4:	00d00093          	li	ra,13
 3f8:	401080bb          	subw	ra,ra,ra
 3fc:	00000e93          	li	t4,0
 400:	01200e13          	li	t3,18
 404:	31d09463          	bne	ra,t4,70c <fail>

0000000000000408 <test_19>:
 408:	00000213          	li	tp,0
 40c:	00d00093          	li	ra,13
 410:	00b00113          	li	sp,11
 414:	402081bb          	subw	gp,ra,sp
 418:	00018313          	mv	t1,gp
 41c:	00120213          	addi	tp,tp,1 # 1 <tvec_user-0xff>
 420:	00200293          	li	t0,2
 424:	fe5214e3          	bne	tp,t0,40c <test_19+0x4>
 428:	00200e93          	li	t4,2
 42c:	01300e13          	li	t3,19
 430:	2dd31e63          	bne	t1,t4,70c <fail>

0000000000000434 <test_20>:
 434:	00000213          	li	tp,0
 438:	00e00093          	li	ra,14
 43c:	00b00113          	li	sp,11
 440:	402081bb          	subw	gp,ra,sp
 444:	00000013          	nop
 448:	00018313          	mv	t1,gp
 44c:	00120213          	addi	tp,tp,1 # 1 <tvec_user-0xff>
 450:	00200293          	li	t0,2
 454:	fe5212e3          	bne	tp,t0,438 <test_20+0x4>
 458:	00300e93          	li	t4,3
 45c:	01400e13          	li	t3,20
 460:	2bd31663          	bne	t1,t4,70c <fail>

0000000000000464 <test_21>:
 464:	00000213          	li	tp,0
 468:	00f00093          	li	ra,15
 46c:	00b00113          	li	sp,11
 470:	402081bb          	subw	gp,ra,sp
 474:	00000013          	nop
 478:	00000013          	nop
 47c:	00018313          	mv	t1,gp
 480:	00120213          	addi	tp,tp,1 # 1 <tvec_user-0xff>
 484:	00200293          	li	t0,2
 488:	fe5210e3          	bne	tp,t0,468 <test_21+0x4>
 48c:	00400e93          	li	t4,4
 490:	01500e13          	li	t3,21
 494:	27d31c63          	bne	t1,t4,70c <fail>

0000000000000498 <test_22>:
 498:	00000213          	li	tp,0
 49c:	00d00093          	li	ra,13
 4a0:	00b00113          	li	sp,11
 4a4:	402081bb          	subw	gp,ra,sp
 4a8:	00120213          	addi	tp,tp,1 # 1 <tvec_user-0xff>
 4ac:	00200293          	li	t0,2
 4b0:	fe5216e3          	bne	tp,t0,49c <test_22+0x4>
 4b4:	00200e93          	li	t4,2
 4b8:	01600e13          	li	t3,22
 4bc:	25d19863          	bne	gp,t4,70c <fail>

00000000000004c0 <test_23>:
 4c0:	00000213          	li	tp,0
 4c4:	00e00093          	li	ra,14
 4c8:	00b00113          	li	sp,11
 4cc:	00000013          	nop
 4d0:	402081bb          	subw	gp,ra,sp
 4d4:	00120213          	addi	tp,tp,1 # 1 <tvec_user-0xff>
 4d8:	00200293          	li	t0,2
 4dc:	fe5214e3          	bne	tp,t0,4c4 <test_23+0x4>
 4e0:	00300e93          	li	t4,3
 4e4:	01700e13          	li	t3,23
 4e8:	23d19263          	bne	gp,t4,70c <fail>

00000000000004ec <test_24>:
 4ec:	00000213          	li	tp,0
 4f0:	00f00093          	li	ra,15
 4f4:	00b00113          	li	sp,11
 4f8:	00000013          	nop
 4fc:	00000013          	nop
 500:	402081bb          	subw	gp,ra,sp
 504:	00120213          	addi	tp,tp,1 # 1 <tvec_user-0xff>
 508:	00200293          	li	t0,2
 50c:	fe5212e3          	bne	tp,t0,4f0 <test_24+0x4>
 510:	00400e93          	li	t4,4
 514:	01800e13          	li	t3,24
 518:	1fd19a63          	bne	gp,t4,70c <fail>

000000000000051c <test_25>:
 51c:	00000213          	li	tp,0
 520:	00d00093          	li	ra,13
 524:	00000013          	nop
 528:	00b00113          	li	sp,11
 52c:	402081bb          	subw	gp,ra,sp
 530:	00120213          	addi	tp,tp,1 # 1 <tvec_user-0xff>
 534:	00200293          	li	t0,2
 538:	fe5214e3          	bne	tp,t0,520 <test_25+0x4>
 53c:	00200e93          	li	t4,2
 540:	01900e13          	li	t3,25
 544:	1dd19463          	bne	gp,t4,70c <fail>

0000000000000548 <test_26>:
 548:	00000213          	li	tp,0
 54c:	00e00093          	li	ra,14
 550:	00000013          	nop
 554:	00b00113          	li	sp,11
 558:	00000013          	nop
 55c:	402081bb          	subw	gp,ra,sp
 560:	00120213          	addi	tp,tp,1 # 1 <tvec_user-0xff>
 564:	00200293          	li	t0,2
 568:	fe5212e3          	bne	tp,t0,54c <test_26+0x4>
 56c:	00300e93          	li	t4,3
 570:	01a00e13          	li	t3,26
 574:	19d19c63          	bne	gp,t4,70c <fail>

0000000000000578 <test_27>:
 578:	00000213          	li	tp,0
 57c:	00f00093          	li	ra,15
 580:	00000013          	nop
 584:	00000013          	nop
 588:	00b00113          	li	sp,11
 58c:	402081bb          	subw	gp,ra,sp
 590:	00120213          	addi	tp,tp,1 # 1 <tvec_user-0xff>
 594:	00200293          	li	t0,2
 598:	fe5212e3          	bne	tp,t0,57c <test_27+0x4>
 59c:	00400e93          	li	t4,4
 5a0:	01b00e13          	li	t3,27
 5a4:	17d19463          	bne	gp,t4,70c <fail>

00000000000005a8 <test_28>:
 5a8:	00000213          	li	tp,0
 5ac:	00b00113          	li	sp,11
 5b0:	00d00093          	li	ra,13
 5b4:	402081bb          	subw	gp,ra,sp
 5b8:	00120213          	addi	tp,tp,1 # 1 <tvec_user-0xff>
 5bc:	00200293          	li	t0,2
 5c0:	fe5216e3          	bne	tp,t0,5ac <test_28+0x4>
 5c4:	00200e93          	li	t4,2
 5c8:	01c00e13          	li	t3,28
 5cc:	15d19063          	bne	gp,t4,70c <fail>

00000000000005d0 <test_29>:
 5d0:	00000213          	li	tp,0
 5d4:	00b00113          	li	sp,11
 5d8:	00e00093          	li	ra,14
 5dc:	00000013          	nop
 5e0:	402081bb          	subw	gp,ra,sp
 5e4:	00120213          	addi	tp,tp,1 # 1 <tvec_user-0xff>
 5e8:	00200293          	li	t0,2
 5ec:	fe5214e3          	bne	tp,t0,5d4 <test_29+0x4>
 5f0:	00300e93          	li	t4,3
 5f4:	01d00e13          	li	t3,29
 5f8:	11d19a63          	bne	gp,t4,70c <fail>

00000000000005fc <test_30>:
 5fc:	00000213          	li	tp,0
 600:	00b00113          	li	sp,11
 604:	00f00093          	li	ra,15
 608:	00000013          	nop
 60c:	00000013          	nop
 610:	402081bb          	subw	gp,ra,sp
 614:	00120213          	addi	tp,tp,1 # 1 <tvec_user-0xff>
 618:	00200293          	li	t0,2
 61c:	fe5212e3          	bne	tp,t0,600 <test_30+0x4>
 620:	00400e93          	li	t4,4
 624:	01e00e13          	li	t3,30
 628:	0fd19263          	bne	gp,t4,70c <fail>

000000000000062c <test_31>:
 62c:	00000213          	li	tp,0
 630:	00b00113          	li	sp,11
 634:	00000013          	nop
 638:	00d00093          	li	ra,13
 63c:	402081bb          	subw	gp,ra,sp
 640:	00120213          	addi	tp,tp,1 # 1 <tvec_user-0xff>
 644:	00200293          	li	t0,2
 648:	fe5214e3          	bne	tp,t0,630 <test_31+0x4>
 64c:	00200e93          	li	t4,2
 650:	01f00e13          	li	t3,31
 654:	0bd19c63          	bne	gp,t4,70c <fail>

0000000000000658 <test_32>:
 658:	00000213          	li	tp,0
 65c:	00b00113          	li	sp,11
 660:	00000013          	nop
 664:	00e00093          	li	ra,14
 668:	00000013          	nop
 66c:	402081bb          	subw	gp,ra,sp
 670:	00120213          	addi	tp,tp,1 # 1 <tvec_user-0xff>
 674:	00200293          	li	t0,2
 678:	fe5212e3          	bne	tp,t0,65c <test_32+0x4>
 67c:	00300e93          	li	t4,3
 680:	02000e13          	li	t3,32
 684:	09d19463          	bne	gp,t4,70c <fail>

0000000000000688 <test_33>:
 688:	00000213          	li	tp,0
 68c:	00b00113          	li	sp,11
 690:	00000013          	nop
 694:	00000013          	nop
 698:	00f00093          	li	ra,15
 69c:	402081bb          	subw	gp,ra,sp
 6a0:	00120213          	addi	tp,tp,1 # 1 <tvec_user-0xff>
 6a4:	00200293          	li	t0,2
 6a8:	fe5212e3          	bne	tp,t0,68c <test_33+0x4>
 6ac:	00400e93          	li	t4,4
 6b0:	02100e13          	li	t3,33
 6b4:	05d19c63          	bne	gp,t4,70c <fail>

00000000000006b8 <test_34>:
 6b8:	ff100093          	li	ra,-15
 6bc:	4010013b          	negw	sp,ra
 6c0:	00f00e93          	li	t4,15
 6c4:	02200e13          	li	t3,34
 6c8:	05d11263          	bne	sp,t4,70c <fail>

00000000000006cc <test_35>:
 6cc:	02000093          	li	ra,32
 6d0:	4000813b          	subw	sp,ra,zero
 6d4:	02000e93          	li	t4,32
 6d8:	02300e13          	li	t3,35
 6dc:	03d11863          	bne	sp,t4,70c <fail>

00000000000006e0 <test_36>:
 6e0:	400000bb          	negw	ra,zero
 6e4:	00000e93          	li	t4,0
 6e8:	02400e13          	li	t3,36
 6ec:	03d09063          	bne	ra,t4,70c <fail>

00000000000006f0 <test_37>:
 6f0:	01000093          	li	ra,16
 6f4:	01e00113          	li	sp,30
 6f8:	4020803b          	subw	zero,ra,sp
 6fc:	00000e93          	li	t4,0
 700:	02500e13          	li	t3,37
 704:	01d01463          	bne	zero,t4,70c <fail>
 708:	01c01c63          	bne	zero,t3,720 <pass>

000000000000070c <fail>:
 70c:	0ff0000f          	fence
 710:	000e0063          	beqz	t3,710 <fail+0x4>
 714:	001e1e13          	slli	t3,t3,0x1
 718:	001e6e13          	ori	t3,t3,1
 71c:	0100006f          	j	72c <ecall>

0000000000000720 <pass>:
 720:	0ff0000f          	fence
 724:	00100e13          	li	t3,1
 728:	0040006f          	j	72c <ecall>

000000000000072c <ecall>:
 72c:	00000073          	ecall
 730:	ffdff06f          	j	72c <ecall>
