
rv64ui-p-blt:     file format elf64-littleriscv


Disassembly of section .text.init:

0000000000000000 <_start>:
   0:	0480006f          	j	48 <reset_vector>

0000000000000004 <trap_vector>:
   4:	34202f73          	csrr	t5,mcause
   8:	00800f93          	li	t6,8
   c:	03ff0a63          	beq	t5,t6,40 <write_tohost>
  10:	00900f93          	li	t6,9
  14:	03ff0663          	beq	t5,t6,40 <write_tohost>
  18:	00b00f93          	li	t6,11
  1c:	03ff0263          	beq	t5,t6,40 <write_tohost>
  20:	00000f17          	auipc	t5,0x0
  24:	fe0f0f13          	addi	t5,t5,-32 # 0 <_start>
  28:	000f0463          	beqz	t5,30 <trap_vector+0x2c>
  2c:	000f0067          	jr	t5
  30:	34202f73          	csrr	t5,mcause
  34:	000f5463          	bgez	t5,3c <handle_exception>
  38:	0040006f          	j	3c <handle_exception>

000000000000003c <handle_exception>:
  3c:	5391e193          	ori	gp,gp,1337

0000000000000040 <write_tohost>:
  40:	9f019073          	csrw	0x9f0,gp
  44:	ffdff06f          	j	40 <write_tohost>

0000000000000048 <reset_vector>:
  48:	f1402573          	csrr	a0,mhartid
  4c:	00051063          	bnez	a0,4c <reset_vector+0x4>
  50:	00000297          	auipc	t0,0x0
  54:	01028293          	addi	t0,t0,16 # 60 <reset_vector+0x18>
  58:	30529073          	csrw	mtvec,t0
  5c:	18005073          	csrwi	satp,0
  60:	00000297          	auipc	t0,0x0
  64:	01c28293          	addi	t0,t0,28 # 7c <reset_vector+0x34>
  68:	30529073          	csrw	mtvec,t0
  6c:	fff00293          	li	t0,-1
  70:	3b029073          	csrw	pmpaddr0,t0
  74:	01f00293          	li	t0,31
  78:	3a029073          	csrw	pmpcfg0,t0
  7c:	00000297          	auipc	t0,0x0
  80:	01828293          	addi	t0,t0,24 # 94 <reset_vector+0x4c>
  84:	30529073          	csrw	mtvec,t0
  88:	30205073          	csrwi	medeleg,0
  8c:	30305073          	csrwi	mideleg,0
  90:	30405073          	csrwi	mie,0
  94:	00000193          	li	gp,0
  98:	00000297          	auipc	t0,0x0
  9c:	f6c28293          	addi	t0,t0,-148 # 4 <trap_vector>
  a0:	30529073          	csrw	mtvec,t0
  a4:	00100513          	li	a0,1
  a8:	01f51513          	slli	a0,a0,0x1f
  ac:	00055863          	bgez	a0,bc <reset_vector+0x74>
  b0:	0ff0000f          	fence
  b4:	00100193          	li	gp,1
  b8:	00000073          	ecall
  bc:	00000297          	auipc	t0,0x0
  c0:	f4428293          	addi	t0,t0,-188 # 0 <_start>
  c4:	00028e63          	beqz	t0,e0 <reset_vector+0x98>
  c8:	10529073          	csrw	stvec,t0
  cc:	0000b2b7          	lui	t0,0xb
  d0:	1092829b          	addiw	t0,t0,265
  d4:	30229073          	csrw	medeleg,t0
  d8:	30202373          	csrr	t1,medeleg
  dc:	f66290e3          	bne	t0,t1,3c <handle_exception>
  e0:	30005073          	csrwi	mstatus,0
  e4:	00000297          	auipc	t0,0x0
  e8:	01428293          	addi	t0,t0,20 # f8 <test_2>
  ec:	34129073          	csrw	mepc,t0
  f0:	f1402573          	csrr	a0,mhartid
  f4:	30200073          	mret

00000000000000f8 <test_2>:
  f8:	00200193          	li	gp,2
  fc:	00000093          	li	ra,0
 100:	00100113          	li	sp,1
 104:	0020c663          	blt	ra,sp,110 <test_2+0x18>
 108:	2a301863          	bne	zero,gp,3b8 <fail>
 10c:	00301663          	bne	zero,gp,118 <test_3>
 110:	fe20cee3          	blt	ra,sp,10c <test_2+0x14>
 114:	2a301263          	bne	zero,gp,3b8 <fail>

0000000000000118 <test_3>:
 118:	00300193          	li	gp,3
 11c:	fff00093          	li	ra,-1
 120:	00100113          	li	sp,1
 124:	0020c663          	blt	ra,sp,130 <test_3+0x18>
 128:	28301863          	bne	zero,gp,3b8 <fail>
 12c:	00301663          	bne	zero,gp,138 <test_4>
 130:	fe20cee3          	blt	ra,sp,12c <test_3+0x14>
 134:	28301263          	bne	zero,gp,3b8 <fail>

0000000000000138 <test_4>:
 138:	00400193          	li	gp,4
 13c:	ffe00093          	li	ra,-2
 140:	fff00113          	li	sp,-1
 144:	0020c663          	blt	ra,sp,150 <test_4+0x18>
 148:	26301863          	bne	zero,gp,3b8 <fail>
 14c:	00301663          	bne	zero,gp,158 <test_5>
 150:	fe20cee3          	blt	ra,sp,14c <test_4+0x14>
 154:	26301263          	bne	zero,gp,3b8 <fail>

0000000000000158 <test_5>:
 158:	00500193          	li	gp,5
 15c:	00100093          	li	ra,1
 160:	00000113          	li	sp,0
 164:	0020c463          	blt	ra,sp,16c <test_5+0x14>
 168:	00301463          	bne	zero,gp,170 <test_5+0x18>
 16c:	24301663          	bne	zero,gp,3b8 <fail>
 170:	fe20cee3          	blt	ra,sp,16c <test_5+0x14>

0000000000000174 <test_6>:
 174:	00600193          	li	gp,6
 178:	00100093          	li	ra,1
 17c:	fff00113          	li	sp,-1
 180:	0020c463          	blt	ra,sp,188 <test_6+0x14>
 184:	00301463          	bne	zero,gp,18c <test_6+0x18>
 188:	22301863          	bne	zero,gp,3b8 <fail>
 18c:	fe20cee3          	blt	ra,sp,188 <test_6+0x14>

0000000000000190 <test_7>:
 190:	00700193          	li	gp,7
 194:	fff00093          	li	ra,-1
 198:	ffe00113          	li	sp,-2
 19c:	0020c463          	blt	ra,sp,1a4 <test_7+0x14>
 1a0:	00301463          	bne	zero,gp,1a8 <test_7+0x18>
 1a4:	20301a63          	bne	zero,gp,3b8 <fail>
 1a8:	fe20cee3          	blt	ra,sp,1a4 <test_7+0x14>

00000000000001ac <test_8>:
 1ac:	00800193          	li	gp,8
 1b0:	00100093          	li	ra,1
 1b4:	ffe00113          	li	sp,-2
 1b8:	0020c463          	blt	ra,sp,1c0 <test_8+0x14>
 1bc:	00301463          	bne	zero,gp,1c4 <test_8+0x18>
 1c0:	1e301c63          	bne	zero,gp,3b8 <fail>
 1c4:	fe20cee3          	blt	ra,sp,1c0 <test_8+0x14>

00000000000001c8 <test_9>:
 1c8:	00900193          	li	gp,9
 1cc:	00000213          	li	tp,0
 1d0:	00000093          	li	ra,0
 1d4:	fff00113          	li	sp,-1
 1d8:	1e20c063          	blt	ra,sp,3b8 <fail>
 1dc:	00120213          	addi	tp,tp,1 # 1 <_start+0x1>
 1e0:	00200293          	li	t0,2
 1e4:	fe5216e3          	bne	tp,t0,1d0 <test_9+0x8>

00000000000001e8 <test_10>:
 1e8:	00a00193          	li	gp,10
 1ec:	00000213          	li	tp,0
 1f0:	00000093          	li	ra,0
 1f4:	fff00113          	li	sp,-1
 1f8:	00000013          	nop
 1fc:	1a20ce63          	blt	ra,sp,3b8 <fail>
 200:	00120213          	addi	tp,tp,1 # 1 <_start+0x1>
 204:	00200293          	li	t0,2
 208:	fe5214e3          	bne	tp,t0,1f0 <test_10+0x8>

000000000000020c <test_11>:
 20c:	00b00193          	li	gp,11
 210:	00000213          	li	tp,0
 214:	00000093          	li	ra,0
 218:	fff00113          	li	sp,-1
 21c:	00000013          	nop
 220:	00000013          	nop
 224:	1820ca63          	blt	ra,sp,3b8 <fail>
 228:	00120213          	addi	tp,tp,1 # 1 <_start+0x1>
 22c:	00200293          	li	t0,2
 230:	fe5212e3          	bne	tp,t0,214 <test_11+0x8>

0000000000000234 <test_12>:
 234:	00c00193          	li	gp,12
 238:	00000213          	li	tp,0
 23c:	00000093          	li	ra,0
 240:	00000013          	nop
 244:	fff00113          	li	sp,-1
 248:	1620c863          	blt	ra,sp,3b8 <fail>
 24c:	00120213          	addi	tp,tp,1 # 1 <_start+0x1>
 250:	00200293          	li	t0,2
 254:	fe5214e3          	bne	tp,t0,23c <test_12+0x8>

0000000000000258 <test_13>:
 258:	00d00193          	li	gp,13
 25c:	00000213          	li	tp,0
 260:	00000093          	li	ra,0
 264:	00000013          	nop
 268:	fff00113          	li	sp,-1
 26c:	00000013          	nop
 270:	1420c463          	blt	ra,sp,3b8 <fail>
 274:	00120213          	addi	tp,tp,1 # 1 <_start+0x1>
 278:	00200293          	li	t0,2
 27c:	fe5212e3          	bne	tp,t0,260 <test_13+0x8>

0000000000000280 <test_14>:
 280:	00e00193          	li	gp,14
 284:	00000213          	li	tp,0
 288:	00000093          	li	ra,0
 28c:	00000013          	nop
 290:	00000013          	nop
 294:	fff00113          	li	sp,-1
 298:	1220c063          	blt	ra,sp,3b8 <fail>
 29c:	00120213          	addi	tp,tp,1 # 1 <_start+0x1>
 2a0:	00200293          	li	t0,2
 2a4:	fe5212e3          	bne	tp,t0,288 <test_14+0x8>

00000000000002a8 <test_15>:
 2a8:	00f00193          	li	gp,15
 2ac:	00000213          	li	tp,0
 2b0:	00000093          	li	ra,0
 2b4:	fff00113          	li	sp,-1
 2b8:	1020c063          	blt	ra,sp,3b8 <fail>
 2bc:	00120213          	addi	tp,tp,1 # 1 <_start+0x1>
 2c0:	00200293          	li	t0,2
 2c4:	fe5216e3          	bne	tp,t0,2b0 <test_15+0x8>

00000000000002c8 <test_16>:
 2c8:	01000193          	li	gp,16
 2cc:	00000213          	li	tp,0
 2d0:	00000093          	li	ra,0
 2d4:	fff00113          	li	sp,-1
 2d8:	00000013          	nop
 2dc:	0c20ce63          	blt	ra,sp,3b8 <fail>
 2e0:	00120213          	addi	tp,tp,1 # 1 <_start+0x1>
 2e4:	00200293          	li	t0,2
 2e8:	fe5214e3          	bne	tp,t0,2d0 <test_16+0x8>

00000000000002ec <test_17>:
 2ec:	01100193          	li	gp,17
 2f0:	00000213          	li	tp,0
 2f4:	00000093          	li	ra,0
 2f8:	fff00113          	li	sp,-1
 2fc:	00000013          	nop
 300:	00000013          	nop
 304:	0a20ca63          	blt	ra,sp,3b8 <fail>
 308:	00120213          	addi	tp,tp,1 # 1 <_start+0x1>
 30c:	00200293          	li	t0,2
 310:	fe5212e3          	bne	tp,t0,2f4 <test_17+0x8>

0000000000000314 <test_18>:
 314:	01200193          	li	gp,18
 318:	00000213          	li	tp,0
 31c:	00000093          	li	ra,0
 320:	00000013          	nop
 324:	fff00113          	li	sp,-1
 328:	0820c863          	blt	ra,sp,3b8 <fail>
 32c:	00120213          	addi	tp,tp,1 # 1 <_start+0x1>
 330:	00200293          	li	t0,2
 334:	fe5214e3          	bne	tp,t0,31c <test_18+0x8>

0000000000000338 <test_19>:
 338:	01300193          	li	gp,19
 33c:	00000213          	li	tp,0
 340:	00000093          	li	ra,0
 344:	00000013          	nop
 348:	fff00113          	li	sp,-1
 34c:	00000013          	nop
 350:	0620c463          	blt	ra,sp,3b8 <fail>
 354:	00120213          	addi	tp,tp,1 # 1 <_start+0x1>
 358:	00200293          	li	t0,2
 35c:	fe5212e3          	bne	tp,t0,340 <test_19+0x8>

0000000000000360 <test_20>:
 360:	01400193          	li	gp,20
 364:	00000213          	li	tp,0
 368:	00000093          	li	ra,0
 36c:	00000013          	nop
 370:	00000013          	nop
 374:	fff00113          	li	sp,-1
 378:	0420c063          	blt	ra,sp,3b8 <fail>
 37c:	00120213          	addi	tp,tp,1 # 1 <_start+0x1>
 380:	00200293          	li	t0,2
 384:	fe5212e3          	bne	tp,t0,368 <test_20+0x8>

0000000000000388 <test_21>:
 388:	00100093          	li	ra,1
 38c:	00104a63          	bgtz	ra,3a0 <test_21+0x18>
 390:	00108093          	addi	ra,ra,1
 394:	00108093          	addi	ra,ra,1
 398:	00108093          	addi	ra,ra,1
 39c:	00108093          	addi	ra,ra,1
 3a0:	00108093          	addi	ra,ra,1
 3a4:	00108093          	addi	ra,ra,1
 3a8:	00300e93          	li	t4,3
 3ac:	01500193          	li	gp,21
 3b0:	01d09463          	bne	ra,t4,3b8 <fail>
 3b4:	00301c63          	bne	zero,gp,3cc <pass>

00000000000003b8 <fail>:
 3b8:	0ff0000f          	fence
 3bc:	00018063          	beqz	gp,3bc <fail+0x4>
 3c0:	00119193          	slli	gp,gp,0x1
 3c4:	0011e193          	ori	gp,gp,1
 3c8:	00000073          	ecall

00000000000003cc <pass>:
 3cc:	0ff0000f          	fence
 3d0:	00100193          	li	gp,1
 3d4:	00000073          	ecall
 3d8:	c0001073          	unimp
 3dc:	0000                	unimp
 3de:	0000                	unimp
 3e0:	0000                	unimp
 3e2:	0000                	unimp
 3e4:	0000                	unimp
 3e6:	0000                	unimp
 3e8:	0000                	unimp
 3ea:	0000                	unimp
 3ec:	0000                	unimp
 3ee:	0000                	unimp
 3f0:	0000                	unimp
 3f2:	0000                	unimp
 3f4:	0000                	unimp
 3f6:	0000                	unimp
 3f8:	0000                	unimp
 3fa:	0000                	unimp
 3fc:	0000                	unimp
 3fe:	0000                	unimp
 400:	0000                	unimp
 402:	0000                	unimp
