
rv64ui-p-lw:     file format elf64-littleriscv


Disassembly of section .text:

0000000000000100 <tvec_user>:
 100:	00000f17          	auipc	t5,0x0
 104:	3f8f0f13          	addi	t5,t5,1016 # 4f8 <ecall>
 108:	34102ff3          	csrr	t6,mepc
 10c:	07ff0c63          	beq	t5,t6,184 <write_tohost>
 110:	00000f17          	auipc	t5,0x0
 114:	ef0f0f13          	addi	t5,t5,-272 # 0 <tvec_user-0x100>
 118:	020f1863          	bnez	t5,148 <mrts_routine>
 11c:	00000f17          	auipc	t5,0x0
 120:	ee4f0f13          	addi	t5,t5,-284 # 0 <tvec_user-0x100>
 124:	000f0463          	beqz	t5,12c <tvec_user+0x2c>
 128:	ed9ff06f          	j	0 <tvec_user-0x100>
 12c:	0540006f          	j	180 <other_exception>
 130:	00000013          	nop
 134:	00000013          	nop
 138:	00000013          	nop
 13c:	00000013          	nop

0000000000000140 <tvec_supervisor>:
 140:	34202f73          	csrr	t5,mcause
 144:	fa0f5ee3          	bgez	t5,100 <tvec_user>

0000000000000148 <mrts_routine>:
 148:	30500073          	mrts
 14c:	00000013          	nop
 150:	00000013          	nop
 154:	00000013          	nop
 158:	00000013          	nop
 15c:	00000013          	nop
 160:	00000013          	nop
 164:	00000013          	nop
 168:	00000013          	nop
 16c:	00000013          	nop
 170:	00000013          	nop
 174:	00000013          	nop
 178:	00000013          	nop
 17c:	00000013          	nop

0000000000000180 <other_exception>:
 180:	539e6e13          	ori	t3,t3,1337

0000000000000184 <write_tohost>:
 184:	780e1073          	csrw	mtohost,t3
 188:	ffdff06f          	j	184 <write_tohost>
 18c:	00000013          	nop
 190:	00000013          	nop
 194:	00000013          	nop
 198:	00000013          	nop
 19c:	00000013          	nop
 1a0:	00000013          	nop
 1a4:	00000013          	nop
 1a8:	00000013          	nop
 1ac:	00000013          	nop
 1b0:	00000013          	nop
 1b4:	00000013          	nop
 1b8:	00000013          	nop
 1bc:	00000013          	nop

00000000000001c0 <tvec_machine>:
 1c0:	00000f17          	auipc	t5,0x0
 1c4:	338f0f13          	addi	t5,t5,824 # 4f8 <ecall>
 1c8:	34102ff3          	csrr	t6,mepc
 1cc:	fbff0ce3          	beq	t5,t6,184 <write_tohost>
 1d0:	00000f17          	auipc	t5,0x0
 1d4:	e30f0f13          	addi	t5,t5,-464 # 0 <tvec_user-0x100>
 1d8:	000f0463          	beqz	t5,1e0 <tvec_machine+0x20>
 1dc:	e25ff06f          	j	0 <tvec_user-0x100>
 1e0:	fa1ff06f          	j	180 <other_exception>
 1e4:	00000013          	nop
 1e8:	00000013          	nop
 1ec:	00000013          	nop
 1f0:	00000013          	nop
 1f4:	00000013          	nop
 1f8:	00000013          	nop
 1fc:	00000013          	nop

0000000000000200 <_start>:
 200:	f1002573          	csrr	a0,mhartid
 204:	00051063          	bnez	a0,204 <_start+0x4>
 208:	f0002573          	csrr	a0,mcpuid
 20c:	00054863          	bltz	a0,21c <_start+0x1c>
 210:	0ff0000f          	fence
 214:	00100e13          	li	t3,1
 218:	2e00006f          	j	4f8 <ecall>
 21c:	00000e13          	li	t3,0
 220:	00000297          	auipc	t0,0x0
 224:	de028293          	addi	t0,t0,-544 # 0 <tvec_user-0x100>
 228:	00028463          	beqz	t0,230 <_start+0x30>
 22c:	10129073          	csrw	stvec,t0
 230:	1f800293          	li	t0,504
 234:	3002b073          	csrc	mstatus,t0
 238:	00000297          	auipc	t0,0x0
 23c:	01428293          	addi	t0,t0,20 # 24c <test_2>
 240:	34129073          	csrw	mepc,t0
 244:	f1002573          	csrr	a0,mhartid
 248:	10000073          	eret

000000000000024c <test_2>:
 24c:	00001097          	auipc	ra,0x1
 250:	db408093          	addi	ra,ra,-588 # 1000 <begin_signature>
 254:	0000a183          	lw	gp,0(ra)
 258:	00ff0eb7          	lui	t4,0xff0
 25c:	0ffe8e9b          	addiw	t4,t4,255
 260:	00200e13          	li	t3,2
 264:	27d19a63          	bne	gp,t4,4d8 <fail>

0000000000000268 <test_3>:
 268:	00001097          	auipc	ra,0x1
 26c:	d9808093          	addi	ra,ra,-616 # 1000 <begin_signature>
 270:	0040a183          	lw	gp,4(ra)
 274:	ff010eb7          	lui	t4,0xff010
 278:	f00e8e9b          	addiw	t4,t4,-256
 27c:	00300e13          	li	t3,3
 280:	25d19c63          	bne	gp,t4,4d8 <fail>

0000000000000284 <test_4>:
 284:	00001097          	auipc	ra,0x1
 288:	d7c08093          	addi	ra,ra,-644 # 1000 <begin_signature>
 28c:	0080a183          	lw	gp,8(ra)
 290:	0ff01eb7          	lui	t4,0xff01
 294:	ff0e8e9b          	addiw	t4,t4,-16
 298:	00400e13          	li	t3,4
 29c:	23d19e63          	bne	gp,t4,4d8 <fail>

00000000000002a0 <test_5>:
 2a0:	00001097          	auipc	ra,0x1
 2a4:	d6008093          	addi	ra,ra,-672 # 1000 <begin_signature>
 2a8:	00c0a183          	lw	gp,12(ra)
 2ac:	f00ffeb7          	lui	t4,0xf00ff
 2b0:	00fe8e9b          	addiw	t4,t4,15
 2b4:	00500e13          	li	t3,5
 2b8:	23d19063          	bne	gp,t4,4d8 <fail>

00000000000002bc <test_6>:
 2bc:	00001097          	auipc	ra,0x1
 2c0:	d5008093          	addi	ra,ra,-688 # 100c <tdat4>
 2c4:	ff40a183          	lw	gp,-12(ra)
 2c8:	00ff0eb7          	lui	t4,0xff0
 2cc:	0ffe8e9b          	addiw	t4,t4,255
 2d0:	00600e13          	li	t3,6
 2d4:	21d19263          	bne	gp,t4,4d8 <fail>

00000000000002d8 <test_7>:
 2d8:	00001097          	auipc	ra,0x1
 2dc:	d3408093          	addi	ra,ra,-716 # 100c <tdat4>
 2e0:	ff80a183          	lw	gp,-8(ra)
 2e4:	ff010eb7          	lui	t4,0xff010
 2e8:	f00e8e9b          	addiw	t4,t4,-256
 2ec:	00700e13          	li	t3,7
 2f0:	1fd19463          	bne	gp,t4,4d8 <fail>

00000000000002f4 <test_8>:
 2f4:	00001097          	auipc	ra,0x1
 2f8:	d1808093          	addi	ra,ra,-744 # 100c <tdat4>
 2fc:	ffc0a183          	lw	gp,-4(ra)
 300:	0ff01eb7          	lui	t4,0xff01
 304:	ff0e8e9b          	addiw	t4,t4,-16
 308:	00800e13          	li	t3,8
 30c:	1dd19663          	bne	gp,t4,4d8 <fail>

0000000000000310 <test_9>:
 310:	00001097          	auipc	ra,0x1
 314:	cfc08093          	addi	ra,ra,-772 # 100c <tdat4>
 318:	0000a183          	lw	gp,0(ra)
 31c:	f00ffeb7          	lui	t4,0xf00ff
 320:	00fe8e9b          	addiw	t4,t4,15
 324:	00900e13          	li	t3,9
 328:	1bd19863          	bne	gp,t4,4d8 <fail>

000000000000032c <test_10>:
 32c:	00001097          	auipc	ra,0x1
 330:	cd408093          	addi	ra,ra,-812 # 1000 <begin_signature>
 334:	fe008093          	addi	ra,ra,-32
 338:	0200a183          	lw	gp,32(ra)
 33c:	00ff0eb7          	lui	t4,0xff0
 340:	0ffe8e9b          	addiw	t4,t4,255
 344:	00a00e13          	li	t3,10
 348:	19d19863          	bne	gp,t4,4d8 <fail>

000000000000034c <test_11>:
 34c:	00001097          	auipc	ra,0x1
 350:	cb408093          	addi	ra,ra,-844 # 1000 <begin_signature>
 354:	ffd08093          	addi	ra,ra,-3
 358:	0070a183          	lw	gp,7(ra)
 35c:	ff010eb7          	lui	t4,0xff010
 360:	f00e8e9b          	addiw	t4,t4,-256
 364:	00b00e13          	li	t3,11
 368:	17d19863          	bne	gp,t4,4d8 <fail>

000000000000036c <test_12>:
 36c:	00c00e13          	li	t3,12
 370:	00000213          	li	tp,0
 374:	00001097          	auipc	ra,0x1
 378:	c9008093          	addi	ra,ra,-880 # 1004 <tdat2>
 37c:	0040a183          	lw	gp,4(ra)
 380:	00018313          	mv	t1,gp
 384:	0ff01eb7          	lui	t4,0xff01
 388:	ff0e8e9b          	addiw	t4,t4,-16
 38c:	15d31663          	bne	t1,t4,4d8 <fail>
 390:	00120213          	addi	tp,tp,1 # 1 <tvec_user-0xff>
 394:	00200293          	li	t0,2
 398:	fc521ee3          	bne	tp,t0,374 <test_12+0x8>

000000000000039c <test_13>:
 39c:	00d00e13          	li	t3,13
 3a0:	00000213          	li	tp,0
 3a4:	00001097          	auipc	ra,0x1
 3a8:	c6408093          	addi	ra,ra,-924 # 1008 <tdat3>
 3ac:	0040a183          	lw	gp,4(ra)
 3b0:	00000013          	nop
 3b4:	00018313          	mv	t1,gp
 3b8:	f00ffeb7          	lui	t4,0xf00ff
 3bc:	00fe8e9b          	addiw	t4,t4,15
 3c0:	11d31c63          	bne	t1,t4,4d8 <fail>
 3c4:	00120213          	addi	tp,tp,1 # 1 <tvec_user-0xff>
 3c8:	00200293          	li	t0,2
 3cc:	fc521ce3          	bne	tp,t0,3a4 <test_13+0x8>

00000000000003d0 <test_14>:
 3d0:	00e00e13          	li	t3,14
 3d4:	00000213          	li	tp,0
 3d8:	00001097          	auipc	ra,0x1
 3dc:	c2808093          	addi	ra,ra,-984 # 1000 <begin_signature>
 3e0:	0040a183          	lw	gp,4(ra)
 3e4:	00000013          	nop
 3e8:	00000013          	nop
 3ec:	00018313          	mv	t1,gp
 3f0:	ff010eb7          	lui	t4,0xff010
 3f4:	f00e8e9b          	addiw	t4,t4,-256
 3f8:	0fd31063          	bne	t1,t4,4d8 <fail>
 3fc:	00120213          	addi	tp,tp,1 # 1 <tvec_user-0xff>
 400:	00200293          	li	t0,2
 404:	fc521ae3          	bne	tp,t0,3d8 <test_14+0x8>

0000000000000408 <test_15>:
 408:	00f00e13          	li	t3,15
 40c:	00000213          	li	tp,0
 410:	00001097          	auipc	ra,0x1
 414:	bf408093          	addi	ra,ra,-1036 # 1004 <tdat2>
 418:	0040a183          	lw	gp,4(ra)
 41c:	0ff01eb7          	lui	t4,0xff01
 420:	ff0e8e9b          	addiw	t4,t4,-16
 424:	0bd19a63          	bne	gp,t4,4d8 <fail>
 428:	00120213          	addi	tp,tp,1 # 1 <tvec_user-0xff>
 42c:	00200293          	li	t0,2
 430:	fe5210e3          	bne	tp,t0,410 <test_15+0x8>

0000000000000434 <test_16>:
 434:	01000e13          	li	t3,16
 438:	00000213          	li	tp,0
 43c:	00001097          	auipc	ra,0x1
 440:	bcc08093          	addi	ra,ra,-1076 # 1008 <tdat3>
 444:	00000013          	nop
 448:	0040a183          	lw	gp,4(ra)
 44c:	f00ffeb7          	lui	t4,0xf00ff
 450:	00fe8e9b          	addiw	t4,t4,15
 454:	09d19263          	bne	gp,t4,4d8 <fail>
 458:	00120213          	addi	tp,tp,1 # 1 <tvec_user-0xff>
 45c:	00200293          	li	t0,2
 460:	fc521ee3          	bne	tp,t0,43c <test_16+0x8>

0000000000000464 <test_17>:
 464:	01100e13          	li	t3,17
 468:	00000213          	li	tp,0
 46c:	00001097          	auipc	ra,0x1
 470:	b9408093          	addi	ra,ra,-1132 # 1000 <begin_signature>
 474:	00000013          	nop
 478:	00000013          	nop
 47c:	0040a183          	lw	gp,4(ra)
 480:	ff010eb7          	lui	t4,0xff010
 484:	f00e8e9b          	addiw	t4,t4,-256
 488:	05d19863          	bne	gp,t4,4d8 <fail>
 48c:	00120213          	addi	tp,tp,1 # 1 <tvec_user-0xff>
 490:	00200293          	li	t0,2
 494:	fc521ce3          	bne	tp,t0,46c <test_17+0x8>

0000000000000498 <test_18>:
 498:	00001197          	auipc	gp,0x1
 49c:	b6818193          	addi	gp,gp,-1176 # 1000 <begin_signature>
 4a0:	0001a103          	lw	sp,0(gp)
 4a4:	00200113          	li	sp,2
 4a8:	00200e93          	li	t4,2
 4ac:	01200e13          	li	t3,18
 4b0:	03d11463          	bne	sp,t4,4d8 <fail>

00000000000004b4 <test_19>:
 4b4:	00001197          	auipc	gp,0x1
 4b8:	b4c18193          	addi	gp,gp,-1204 # 1000 <begin_signature>
 4bc:	0001a103          	lw	sp,0(gp)
 4c0:	00000013          	nop
 4c4:	00200113          	li	sp,2
 4c8:	00200e93          	li	t4,2
 4cc:	01300e13          	li	t3,19
 4d0:	01d11463          	bne	sp,t4,4d8 <fail>
 4d4:	01c01c63          	bne	zero,t3,4ec <pass>

00000000000004d8 <fail>:
 4d8:	0ff0000f          	fence
 4dc:	000e0063          	beqz	t3,4dc <fail+0x4>
 4e0:	001e1e13          	slli	t3,t3,0x1
 4e4:	001e6e13          	ori	t3,t3,1
 4e8:	0100006f          	j	4f8 <ecall>

00000000000004ec <pass>:
 4ec:	0ff0000f          	fence
 4f0:	00100e13          	li	t3,1
 4f4:	0040006f          	j	4f8 <ecall>

00000000000004f8 <ecall>:
 4f8:	00000073          	ecall
 4fc:	ffdff06f          	j	4f8 <ecall>
