
rv64ui-p-addiw:     file format elf64-littleriscv


Disassembly of section .text:

0000000000000100 <tvec_user>:
 100:	00000f17          	auipc	t5,0x0
 104:	3f4f0f13          	addi	t5,t5,1012 # 4f4 <ecall>
 108:	34102ff3          	csrr	t6,mepc
 10c:	07ff0c63          	beq	t5,t6,184 <write_tohost>
 110:	00000f17          	auipc	t5,0x0
 114:	ef0f0f13          	addi	t5,t5,-272 # 0 <tvec_user-0x100>
 118:	020f1863          	bnez	t5,148 <mrts_routine>
 11c:	00000f17          	auipc	t5,0x0
 120:	ee4f0f13          	addi	t5,t5,-284 # 0 <tvec_user-0x100>
 124:	000f0463          	beqz	t5,12c <tvec_user+0x2c>
 128:	ed9ff06f          	j	0 <tvec_user-0x100>
 12c:	0540006f          	j	180 <other_exception>
 130:	00000013          	nop
 134:	00000013          	nop
 138:	00000013          	nop
 13c:	00000013          	nop

0000000000000140 <tvec_supervisor>:
 140:	34202f73          	csrr	t5,mcause
 144:	fa0f5ee3          	bgez	t5,100 <tvec_user>

0000000000000148 <mrts_routine>:
 148:	30500073          	mrts
 14c:	00000013          	nop
 150:	00000013          	nop
 154:	00000013          	nop
 158:	00000013          	nop
 15c:	00000013          	nop
 160:	00000013          	nop
 164:	00000013          	nop
 168:	00000013          	nop
 16c:	00000013          	nop
 170:	00000013          	nop
 174:	00000013          	nop
 178:	00000013          	nop
 17c:	00000013          	nop

0000000000000180 <other_exception>:
 180:	539e6e13          	ori	t3,t3,1337

0000000000000184 <write_tohost>:
 184:	780e1073          	csrw	mtohost,t3
 188:	ffdff06f          	j	184 <write_tohost>
 18c:	00000013          	nop
 190:	00000013          	nop
 194:	00000013          	nop
 198:	00000013          	nop
 19c:	00000013          	nop
 1a0:	00000013          	nop
 1a4:	00000013          	nop
 1a8:	00000013          	nop
 1ac:	00000013          	nop
 1b0:	00000013          	nop
 1b4:	00000013          	nop
 1b8:	00000013          	nop
 1bc:	00000013          	nop

00000000000001c0 <tvec_machine>:
 1c0:	00000f17          	auipc	t5,0x0
 1c4:	334f0f13          	addi	t5,t5,820 # 4f4 <ecall>
 1c8:	34102ff3          	csrr	t6,mepc
 1cc:	fbff0ce3          	beq	t5,t6,184 <write_tohost>
 1d0:	00000f17          	auipc	t5,0x0
 1d4:	e30f0f13          	addi	t5,t5,-464 # 0 <tvec_user-0x100>
 1d8:	000f0463          	beqz	t5,1e0 <tvec_machine+0x20>
 1dc:	e25ff06f          	j	0 <tvec_user-0x100>
 1e0:	fa1ff06f          	j	180 <other_exception>
 1e4:	00000013          	nop
 1e8:	00000013          	nop
 1ec:	00000013          	nop
 1f0:	00000013          	nop
 1f4:	00000013          	nop
 1f8:	00000013          	nop
 1fc:	00000013          	nop

0000000000000200 <_start>:
 200:	f1002573          	csrr	a0,mhartid
 204:	00051063          	bnez	a0,204 <_start+0x4>
 208:	f0002573          	csrr	a0,mcpuid
 20c:	00054863          	bltz	a0,21c <_start+0x1c>
 210:	0ff0000f          	fence
 214:	00100e13          	li	t3,1
 218:	2dc0006f          	j	4f4 <ecall>
 21c:	00000e13          	li	t3,0
 220:	00000297          	auipc	t0,0x0
 224:	de028293          	addi	t0,t0,-544 # 0 <tvec_user-0x100>
 228:	00028463          	beqz	t0,230 <_start+0x30>
 22c:	10129073          	csrw	stvec,t0
 230:	1f800293          	li	t0,504
 234:	3002b073          	csrc	mstatus,t0
 238:	00000297          	auipc	t0,0x0
 23c:	01428293          	addi	t0,t0,20 # 24c <test_2>
 240:	34129073          	csrw	mepc,t0
 244:	f1002573          	csrr	a0,mhartid
 248:	10000073          	eret

000000000000024c <test_2>:
 24c:	00000093          	li	ra,0
 250:	0000819b          	sext.w	gp,ra
 254:	00000e93          	li	t4,0
 258:	00200e13          	li	t3,2
 25c:	27d19c63          	bne	gp,t4,4d4 <fail>

0000000000000260 <test_3>:
 260:	00100093          	li	ra,1
 264:	0010819b          	addiw	gp,ra,1
 268:	00200e93          	li	t4,2
 26c:	00300e13          	li	t3,3
 270:	27d19263          	bne	gp,t4,4d4 <fail>

0000000000000274 <test_4>:
 274:	00300093          	li	ra,3
 278:	0070819b          	addiw	gp,ra,7
 27c:	00a00e93          	li	t4,10
 280:	00400e13          	li	t3,4
 284:	25d19863          	bne	gp,t4,4d4 <fail>

0000000000000288 <test_5>:
 288:	00000093          	li	ra,0
 28c:	8000819b          	addiw	gp,ra,-2048
 290:	80000e93          	li	t4,-2048
 294:	00500e13          	li	t3,5
 298:	23d19e63          	bne	gp,t4,4d4 <fail>

000000000000029c <test_6>:
 29c:	800000b7          	lui	ra,0x80000
 2a0:	0000819b          	sext.w	gp,ra
 2a4:	80000eb7          	lui	t4,0x80000
 2a8:	00600e13          	li	t3,6
 2ac:	23d19463          	bne	gp,t4,4d4 <fail>

00000000000002b0 <test_7>:
 2b0:	800000b7          	lui	ra,0x80000
 2b4:	8000819b          	addiw	gp,ra,-2048
 2b8:	80000eb7          	lui	t4,0x80000
 2bc:	800e8e9b          	addiw	t4,t4,-2048
 2c0:	00700e13          	li	t3,7
 2c4:	21d19863          	bne	gp,t4,4d4 <fail>

00000000000002c8 <test_8>:
 2c8:	00000093          	li	ra,0
 2cc:	7ff0819b          	addiw	gp,ra,2047
 2d0:	7ff00e93          	li	t4,2047
 2d4:	00800e13          	li	t3,8
 2d8:	1fd19e63          	bne	gp,t4,4d4 <fail>

00000000000002dc <test_9>:
 2dc:	800000b7          	lui	ra,0x80000
 2e0:	fff0809b          	addiw	ra,ra,-1
 2e4:	0000819b          	sext.w	gp,ra
 2e8:	80000eb7          	lui	t4,0x80000
 2ec:	fffe8e9b          	addiw	t4,t4,-1
 2f0:	00900e13          	li	t3,9
 2f4:	1fd19063          	bne	gp,t4,4d4 <fail>

00000000000002f8 <test_10>:
 2f8:	800000b7          	lui	ra,0x80000
 2fc:	fff0809b          	addiw	ra,ra,-1
 300:	7ff0819b          	addiw	gp,ra,2047
 304:	80000eb7          	lui	t4,0x80000
 308:	7fee8e9b          	addiw	t4,t4,2046
 30c:	00a00e13          	li	t3,10
 310:	1dd19263          	bne	gp,t4,4d4 <fail>

0000000000000314 <test_11>:
 314:	800000b7          	lui	ra,0x80000
 318:	7ff0819b          	addiw	gp,ra,2047
 31c:	80000eb7          	lui	t4,0x80000
 320:	7ffe8e9b          	addiw	t4,t4,2047
 324:	00b00e13          	li	t3,11
 328:	1bd19663          	bne	gp,t4,4d4 <fail>

000000000000032c <test_12>:
 32c:	800000b7          	lui	ra,0x80000
 330:	fff0809b          	addiw	ra,ra,-1
 334:	8000819b          	addiw	gp,ra,-2048
 338:	7ffffeb7          	lui	t4,0x7ffff
 33c:	7ffe8e9b          	addiw	t4,t4,2047
 340:	00c00e13          	li	t3,12
 344:	19d19863          	bne	gp,t4,4d4 <fail>

0000000000000348 <test_13>:
 348:	00000093          	li	ra,0
 34c:	fff0819b          	addiw	gp,ra,-1
 350:	fff00e93          	li	t4,-1
 354:	00d00e13          	li	t3,13
 358:	17d19e63          	bne	gp,t4,4d4 <fail>

000000000000035c <test_14>:
 35c:	fff00093          	li	ra,-1
 360:	0010819b          	addiw	gp,ra,1
 364:	00000e93          	li	t4,0
 368:	00e00e13          	li	t3,14
 36c:	17d19463          	bne	gp,t4,4d4 <fail>

0000000000000370 <test_15>:
 370:	fff00093          	li	ra,-1
 374:	fff0819b          	addiw	gp,ra,-1
 378:	ffe00e93          	li	t4,-2
 37c:	00f00e13          	li	t3,15
 380:	15d19a63          	bne	gp,t4,4d4 <fail>

0000000000000384 <test_16>:
 384:	800000b7          	lui	ra,0x80000
 388:	fff0809b          	addiw	ra,ra,-1
 38c:	0010819b          	addiw	gp,ra,1
 390:	80000eb7          	lui	t4,0x80000
 394:	01000e13          	li	t3,16
 398:	13d19e63          	bne	gp,t4,4d4 <fail>

000000000000039c <test_17>:
 39c:	00d00093          	li	ra,13
 3a0:	00b0809b          	addiw	ra,ra,11
 3a4:	01800e93          	li	t4,24
 3a8:	01100e13          	li	t3,17
 3ac:	13d09463          	bne	ra,t4,4d4 <fail>

00000000000003b0 <test_18>:
 3b0:	00000213          	li	tp,0
 3b4:	00d00093          	li	ra,13
 3b8:	00b0819b          	addiw	gp,ra,11
 3bc:	00018313          	mv	t1,gp
 3c0:	00120213          	addi	tp,tp,1 # 1 <tvec_user-0xff>
 3c4:	00200293          	li	t0,2
 3c8:	fe5216e3          	bne	tp,t0,3b4 <test_18+0x4>
 3cc:	01800e93          	li	t4,24
 3d0:	01200e13          	li	t3,18
 3d4:	11d31063          	bne	t1,t4,4d4 <fail>

00000000000003d8 <test_19>:
 3d8:	00000213          	li	tp,0
 3dc:	00d00093          	li	ra,13
 3e0:	00a0819b          	addiw	gp,ra,10
 3e4:	00000013          	nop
 3e8:	00018313          	mv	t1,gp
 3ec:	00120213          	addi	tp,tp,1 # 1 <tvec_user-0xff>
 3f0:	00200293          	li	t0,2
 3f4:	fe5214e3          	bne	tp,t0,3dc <test_19+0x4>
 3f8:	01700e93          	li	t4,23
 3fc:	01300e13          	li	t3,19
 400:	0dd31a63          	bne	t1,t4,4d4 <fail>

0000000000000404 <test_20>:
 404:	00000213          	li	tp,0
 408:	00d00093          	li	ra,13
 40c:	0090819b          	addiw	gp,ra,9
 410:	00000013          	nop
 414:	00000013          	nop
 418:	00018313          	mv	t1,gp
 41c:	00120213          	addi	tp,tp,1 # 1 <tvec_user-0xff>
 420:	00200293          	li	t0,2
 424:	fe5212e3          	bne	tp,t0,408 <test_20+0x4>
 428:	01600e93          	li	t4,22
 42c:	01400e13          	li	t3,20
 430:	0bd31263          	bne	t1,t4,4d4 <fail>

0000000000000434 <test_21>:
 434:	00000213          	li	tp,0
 438:	00d00093          	li	ra,13
 43c:	00b0819b          	addiw	gp,ra,11
 440:	00120213          	addi	tp,tp,1 # 1 <tvec_user-0xff>
 444:	00200293          	li	t0,2
 448:	fe5218e3          	bne	tp,t0,438 <test_21+0x4>
 44c:	01800e93          	li	t4,24
 450:	01500e13          	li	t3,21
 454:	09d19063          	bne	gp,t4,4d4 <fail>

0000000000000458 <test_22>:
 458:	00000213          	li	tp,0
 45c:	00d00093          	li	ra,13
 460:	00000013          	nop
 464:	00a0819b          	addiw	gp,ra,10
 468:	00120213          	addi	tp,tp,1 # 1 <tvec_user-0xff>
 46c:	00200293          	li	t0,2
 470:	fe5216e3          	bne	tp,t0,45c <test_22+0x4>
 474:	01700e93          	li	t4,23
 478:	01600e13          	li	t3,22
 47c:	05d19c63          	bne	gp,t4,4d4 <fail>

0000000000000480 <test_23>:
 480:	00000213          	li	tp,0
 484:	00d00093          	li	ra,13
 488:	00000013          	nop
 48c:	00000013          	nop
 490:	0090819b          	addiw	gp,ra,9
 494:	00120213          	addi	tp,tp,1 # 1 <tvec_user-0xff>
 498:	00200293          	li	t0,2
 49c:	fe5214e3          	bne	tp,t0,484 <test_23+0x4>
 4a0:	01600e93          	li	t4,22
 4a4:	01700e13          	li	t3,23
 4a8:	03d19663          	bne	gp,t4,4d4 <fail>

00000000000004ac <test_24>:
 4ac:	0200009b          	addiw	ra,zero,32
 4b0:	02000e93          	li	t4,32
 4b4:	01800e13          	li	t3,24
 4b8:	01d09e63          	bne	ra,t4,4d4 <fail>

00000000000004bc <test_25>:
 4bc:	02100093          	li	ra,33
 4c0:	0320801b          	addiw	zero,ra,50
 4c4:	00000e93          	li	t4,0
 4c8:	01900e13          	li	t3,25
 4cc:	01d01463          	bne	zero,t4,4d4 <fail>
 4d0:	01c01c63          	bne	zero,t3,4e8 <pass>

00000000000004d4 <fail>:
 4d4:	0ff0000f          	fence
 4d8:	000e0063          	beqz	t3,4d8 <fail+0x4>
 4dc:	001e1e13          	slli	t3,t3,0x1
 4e0:	001e6e13          	ori	t3,t3,1
 4e4:	0100006f          	j	4f4 <ecall>

00000000000004e8 <pass>:
 4e8:	0ff0000f          	fence
 4ec:	00100e13          	li	t3,1
 4f0:	0040006f          	j	4f4 <ecall>

00000000000004f4 <ecall>:
 4f4:	00000073          	ecall
 4f8:	ffdff06f          	j	4f4 <ecall>
