
rv64ui-p-sraiw:     file format elf64-littleriscv


Disassembly of section .text:

0000000000000100 <tvec_user>:
 100:	00000f17          	auipc	t5,0x0
 104:	454f0f13          	addi	t5,t5,1108 # 554 <ecall>
 108:	34102ff3          	csrr	t6,mepc
 10c:	07ff0c63          	beq	t5,t6,184 <write_tohost>
 110:	00000f17          	auipc	t5,0x0
 114:	ef0f0f13          	addi	t5,t5,-272 # 0 <tvec_user-0x100>
 118:	020f1863          	bnez	t5,148 <mrts_routine>
 11c:	00000f17          	auipc	t5,0x0
 120:	ee4f0f13          	addi	t5,t5,-284 # 0 <tvec_user-0x100>
 124:	000f0463          	beqz	t5,12c <tvec_user+0x2c>
 128:	ed9ff06f          	j	0 <tvec_user-0x100>
 12c:	0540006f          	j	180 <other_exception>
 130:	00000013          	nop
 134:	00000013          	nop
 138:	00000013          	nop
 13c:	00000013          	nop

0000000000000140 <tvec_supervisor>:
 140:	34202f73          	csrr	t5,mcause
 144:	fa0f5ee3          	bgez	t5,100 <tvec_user>

0000000000000148 <mrts_routine>:
 148:	30500073          	mrts
 14c:	00000013          	nop
 150:	00000013          	nop
 154:	00000013          	nop
 158:	00000013          	nop
 15c:	00000013          	nop
 160:	00000013          	nop
 164:	00000013          	nop
 168:	00000013          	nop
 16c:	00000013          	nop
 170:	00000013          	nop
 174:	00000013          	nop
 178:	00000013          	nop
 17c:	00000013          	nop

0000000000000180 <other_exception>:
 180:	539e6e13          	ori	t3,t3,1337

0000000000000184 <write_tohost>:
 184:	780e1073          	csrw	mtohost,t3
 188:	ffdff06f          	j	184 <write_tohost>
 18c:	00000013          	nop
 190:	00000013          	nop
 194:	00000013          	nop
 198:	00000013          	nop
 19c:	00000013          	nop
 1a0:	00000013          	nop
 1a4:	00000013          	nop
 1a8:	00000013          	nop
 1ac:	00000013          	nop
 1b0:	00000013          	nop
 1b4:	00000013          	nop
 1b8:	00000013          	nop
 1bc:	00000013          	nop

00000000000001c0 <tvec_machine>:
 1c0:	00000f17          	auipc	t5,0x0
 1c4:	394f0f13          	addi	t5,t5,916 # 554 <ecall>
 1c8:	34102ff3          	csrr	t6,mepc
 1cc:	fbff0ce3          	beq	t5,t6,184 <write_tohost>
 1d0:	00000f17          	auipc	t5,0x0
 1d4:	e30f0f13          	addi	t5,t5,-464 # 0 <tvec_user-0x100>
 1d8:	000f0463          	beqz	t5,1e0 <tvec_machine+0x20>
 1dc:	e25ff06f          	j	0 <tvec_user-0x100>
 1e0:	fa1ff06f          	j	180 <other_exception>
 1e4:	00000013          	nop
 1e8:	00000013          	nop
 1ec:	00000013          	nop
 1f0:	00000013          	nop
 1f4:	00000013          	nop
 1f8:	00000013          	nop
 1fc:	00000013          	nop

0000000000000200 <_start>:
 200:	f1002573          	csrr	a0,mhartid
 204:	00051063          	bnez	a0,204 <_start+0x4>
 208:	f0002573          	csrr	a0,mcpuid
 20c:	00054863          	bltz	a0,21c <_start+0x1c>
 210:	0ff0000f          	fence
 214:	00100e13          	li	t3,1
 218:	33c0006f          	j	554 <ecall>
 21c:	00000e13          	li	t3,0
 220:	00000297          	auipc	t0,0x0
 224:	de028293          	addi	t0,t0,-544 # 0 <tvec_user-0x100>
 228:	00028463          	beqz	t0,230 <_start+0x30>
 22c:	10129073          	csrw	stvec,t0
 230:	1f800293          	li	t0,504
 234:	3002b073          	csrc	mstatus,t0
 238:	00000297          	auipc	t0,0x0
 23c:	01428293          	addi	t0,t0,20 # 24c <test_2>
 240:	34129073          	csrw	mepc,t0
 244:	f1002573          	csrr	a0,mhartid
 248:	10000073          	eret

000000000000024c <test_2>:
 24c:	800000b7          	lui	ra,0x80000
 250:	4000d19b          	sraiw	gp,ra,0x0
 254:	80000eb7          	lui	t4,0x80000
 258:	00200e13          	li	t3,2
 25c:	2dd19c63          	bne	gp,t4,534 <fail>

0000000000000260 <test_3>:
 260:	800000b7          	lui	ra,0x80000
 264:	4010d19b          	sraiw	gp,ra,0x1
 268:	c0000eb7          	lui	t4,0xc0000
 26c:	00300e13          	li	t3,3
 270:	2dd19263          	bne	gp,t4,534 <fail>

0000000000000274 <test_4>:
 274:	800000b7          	lui	ra,0x80000
 278:	4070d19b          	sraiw	gp,ra,0x7
 27c:	ff000eb7          	lui	t4,0xff000
 280:	00400e13          	li	t3,4
 284:	2bd19863          	bne	gp,t4,534 <fail>

0000000000000288 <test_5>:
 288:	800000b7          	lui	ra,0x80000
 28c:	40e0d19b          	sraiw	gp,ra,0xe
 290:	fffe0eb7          	lui	t4,0xfffe0
 294:	00500e13          	li	t3,5
 298:	29d19e63          	bne	gp,t4,534 <fail>

000000000000029c <test_6>:
 29c:	800000b7          	lui	ra,0x80000
 2a0:	0010809b          	addiw	ra,ra,1
 2a4:	41f0d19b          	sraiw	gp,ra,0x1f
 2a8:	fff00e93          	li	t4,-1
 2ac:	00600e13          	li	t3,6
 2b0:	29d19263          	bne	gp,t4,534 <fail>

00000000000002b4 <test_7>:
 2b4:	800000b7          	lui	ra,0x80000
 2b8:	fff0809b          	addiw	ra,ra,-1
 2bc:	4000d19b          	sraiw	gp,ra,0x0
 2c0:	80000eb7          	lui	t4,0x80000
 2c4:	fffe8e9b          	addiw	t4,t4,-1
 2c8:	00700e13          	li	t3,7
 2cc:	27d19463          	bne	gp,t4,534 <fail>

00000000000002d0 <test_8>:
 2d0:	800000b7          	lui	ra,0x80000
 2d4:	fff0809b          	addiw	ra,ra,-1
 2d8:	4010d19b          	sraiw	gp,ra,0x1
 2dc:	40000eb7          	lui	t4,0x40000
 2e0:	fffe8e9b          	addiw	t4,t4,-1
 2e4:	00800e13          	li	t3,8
 2e8:	25d19663          	bne	gp,t4,534 <fail>

00000000000002ec <test_9>:
 2ec:	800000b7          	lui	ra,0x80000
 2f0:	fff0809b          	addiw	ra,ra,-1
 2f4:	4070d19b          	sraiw	gp,ra,0x7
 2f8:	01000eb7          	lui	t4,0x1000
 2fc:	fffe8e9b          	addiw	t4,t4,-1
 300:	00900e13          	li	t3,9
 304:	23d19863          	bne	gp,t4,534 <fail>

0000000000000308 <test_10>:
 308:	800000b7          	lui	ra,0x80000
 30c:	fff0809b          	addiw	ra,ra,-1
 310:	40e0d19b          	sraiw	gp,ra,0xe
 314:	00020eb7          	lui	t4,0x20
 318:	fffe8e9b          	addiw	t4,t4,-1
 31c:	00a00e13          	li	t3,10
 320:	21d19a63          	bne	gp,t4,534 <fail>

0000000000000324 <test_11>:
 324:	800000b7          	lui	ra,0x80000
 328:	fff0809b          	addiw	ra,ra,-1
 32c:	41f0d19b          	sraiw	gp,ra,0x1f
 330:	00000e93          	li	t4,0
 334:	00b00e13          	li	t3,11
 338:	1fd19e63          	bne	gp,t4,534 <fail>

000000000000033c <test_12>:
 33c:	818180b7          	lui	ra,0x81818
 340:	1810809b          	addiw	ra,ra,385
 344:	4000d19b          	sraiw	gp,ra,0x0
 348:	81818eb7          	lui	t4,0x81818
 34c:	181e8e9b          	addiw	t4,t4,385
 350:	00c00e13          	li	t3,12
 354:	1fd19063          	bne	gp,t4,534 <fail>

0000000000000358 <test_13>:
 358:	818180b7          	lui	ra,0x81818
 35c:	1810809b          	addiw	ra,ra,385
 360:	4010d19b          	sraiw	gp,ra,0x1
 364:	c0c0ceb7          	lui	t4,0xc0c0c
 368:	0c0e8e9b          	addiw	t4,t4,192
 36c:	00d00e13          	li	t3,13
 370:	1dd19263          	bne	gp,t4,534 <fail>

0000000000000374 <test_14>:
 374:	818180b7          	lui	ra,0x81818
 378:	1810809b          	addiw	ra,ra,385
 37c:	4070d19b          	sraiw	gp,ra,0x7
 380:	ff030eb7          	lui	t4,0xff030
 384:	303e8e9b          	addiw	t4,t4,771
 388:	00e00e13          	li	t3,14
 38c:	1bd19463          	bne	gp,t4,534 <fail>

0000000000000390 <test_15>:
 390:	818180b7          	lui	ra,0x81818
 394:	1810809b          	addiw	ra,ra,385
 398:	40e0d19b          	sraiw	gp,ra,0xe
 39c:	fffe0eb7          	lui	t4,0xfffe0
 3a0:	606e8e9b          	addiw	t4,t4,1542
 3a4:	00f00e13          	li	t3,15
 3a8:	19d19663          	bne	gp,t4,534 <fail>

00000000000003ac <test_16>:
 3ac:	818180b7          	lui	ra,0x81818
 3b0:	1810809b          	addiw	ra,ra,385
 3b4:	41f0d19b          	sraiw	gp,ra,0x1f
 3b8:	fff00e93          	li	t4,-1
 3bc:	01000e13          	li	t3,16
 3c0:	17d19a63          	bne	gp,t4,534 <fail>

00000000000003c4 <test_17>:
 3c4:	800000b7          	lui	ra,0x80000
 3c8:	4070d09b          	sraiw	ra,ra,0x7
 3cc:	ff000eb7          	lui	t4,0xff000
 3d0:	01100e13          	li	t3,17
 3d4:	17d09063          	bne	ra,t4,534 <fail>

00000000000003d8 <test_18>:
 3d8:	00000213          	li	tp,0
 3dc:	800000b7          	lui	ra,0x80000
 3e0:	4070d19b          	sraiw	gp,ra,0x7
 3e4:	00018313          	mv	t1,gp
 3e8:	00120213          	addi	tp,tp,1 # 1 <tvec_user-0xff>
 3ec:	00200293          	li	t0,2
 3f0:	fe5216e3          	bne	tp,t0,3dc <test_18+0x4>
 3f4:	ff000eb7          	lui	t4,0xff000
 3f8:	01200e13          	li	t3,18
 3fc:	13d31c63          	bne	t1,t4,534 <fail>

0000000000000400 <test_19>:
 400:	00000213          	li	tp,0
 404:	800000b7          	lui	ra,0x80000
 408:	40e0d19b          	sraiw	gp,ra,0xe
 40c:	00000013          	nop
 410:	00018313          	mv	t1,gp
 414:	00120213          	addi	tp,tp,1 # 1 <tvec_user-0xff>
 418:	00200293          	li	t0,2
 41c:	fe5214e3          	bne	tp,t0,404 <test_19+0x4>
 420:	fffe0eb7          	lui	t4,0xfffe0
 424:	01300e13          	li	t3,19
 428:	11d31663          	bne	t1,t4,534 <fail>

000000000000042c <test_20>:
 42c:	00000213          	li	tp,0
 430:	800000b7          	lui	ra,0x80000
 434:	0010809b          	addiw	ra,ra,1
 438:	41f0d19b          	sraiw	gp,ra,0x1f
 43c:	00000013          	nop
 440:	00000013          	nop
 444:	00018313          	mv	t1,gp
 448:	00120213          	addi	tp,tp,1 # 1 <tvec_user-0xff>
 44c:	00200293          	li	t0,2
 450:	fe5210e3          	bne	tp,t0,430 <test_20+0x4>
 454:	fff00e93          	li	t4,-1
 458:	01400e13          	li	t3,20
 45c:	0dd31c63          	bne	t1,t4,534 <fail>

0000000000000460 <test_21>:
 460:	00000213          	li	tp,0
 464:	800000b7          	lui	ra,0x80000
 468:	4070d19b          	sraiw	gp,ra,0x7
 46c:	00120213          	addi	tp,tp,1 # 1 <tvec_user-0xff>
 470:	00200293          	li	t0,2
 474:	fe5218e3          	bne	tp,t0,464 <test_21+0x4>
 478:	ff000eb7          	lui	t4,0xff000
 47c:	01500e13          	li	t3,21
 480:	0bd19a63          	bne	gp,t4,534 <fail>

0000000000000484 <test_22>:
 484:	00000213          	li	tp,0
 488:	800000b7          	lui	ra,0x80000
 48c:	00000013          	nop
 490:	40e0d19b          	sraiw	gp,ra,0xe
 494:	00120213          	addi	tp,tp,1 # 1 <tvec_user-0xff>
 498:	00200293          	li	t0,2
 49c:	fe5216e3          	bne	tp,t0,488 <test_22+0x4>
 4a0:	fffe0eb7          	lui	t4,0xfffe0
 4a4:	01600e13          	li	t3,22
 4a8:	09d19663          	bne	gp,t4,534 <fail>

00000000000004ac <test_23>:
 4ac:	00000213          	li	tp,0
 4b0:	800000b7          	lui	ra,0x80000
 4b4:	0010809b          	addiw	ra,ra,1
 4b8:	00000013          	nop
 4bc:	00000013          	nop
 4c0:	41f0d19b          	sraiw	gp,ra,0x1f
 4c4:	00120213          	addi	tp,tp,1 # 1 <tvec_user-0xff>
 4c8:	00200293          	li	t0,2
 4cc:	fe5212e3          	bne	tp,t0,4b0 <test_23+0x4>
 4d0:	fff00e93          	li	t4,-1
 4d4:	01700e13          	li	t3,23
 4d8:	05d19e63          	bne	gp,t4,534 <fail>

00000000000004dc <test_24>:
 4dc:	41f0509b          	sraiw	ra,zero,0x1f
 4e0:	00000e93          	li	t4,0
 4e4:	01800e13          	li	t3,24
 4e8:	05d09663          	bne	ra,t4,534 <fail>

00000000000004ec <test_25>:
 4ec:	01f00093          	li	ra,31
 4f0:	41c0d01b          	sraiw	zero,ra,0x1c
 4f4:	00000e93          	li	t4,0
 4f8:	01900e13          	li	t3,25
 4fc:	03d01c63          	bne	zero,t4,534 <fail>

0000000000000500 <test_26>:
 500:	0070009b          	addiw	ra,zero,7
 504:	03509093          	slli	ra,ra,0x35
 508:	41c0d19b          	sraiw	gp,ra,0x1c
 50c:	00000e93          	li	t4,0
 510:	01a00e13          	li	t3,26
 514:	03d19063          	bne	gp,t4,534 <fail>

0000000000000518 <test_27>:
 518:	00f0009b          	addiw	ra,zero,15
 51c:	01c09093          	slli	ra,ra,0x1c
 520:	4040d19b          	sraiw	gp,ra,0x4
 524:	ff000eb7          	lui	t4,0xff000
 528:	01b00e13          	li	t3,27
 52c:	01d19463          	bne	gp,t4,534 <fail>
 530:	01c01c63          	bne	zero,t3,548 <pass>

0000000000000534 <fail>:
 534:	0ff0000f          	fence
 538:	000e0063          	beqz	t3,538 <fail+0x4>
 53c:	001e1e13          	slli	t3,t3,0x1
 540:	001e6e13          	ori	t3,t3,1
 544:	0100006f          	j	554 <ecall>

0000000000000548 <pass>:
 548:	0ff0000f          	fence
 54c:	00100e13          	li	t3,1
 550:	0040006f          	j	554 <ecall>

0000000000000554 <ecall>:
 554:	00000073          	ecall
 558:	ffdff06f          	j	554 <ecall>
