
rv64ui-p-slliw:     file format elf64-littleriscv


Disassembly of section .text:

0000000000000100 <tvec_user>:
 100:	00000f17          	auipc	t5,0x0
 104:	3f0f0f13          	addi	t5,t5,1008 # 4f0 <ecall>
 108:	34102ff3          	csrr	t6,mepc
 10c:	07ff0c63          	beq	t5,t6,184 <write_tohost>
 110:	00000f17          	auipc	t5,0x0
 114:	ef0f0f13          	addi	t5,t5,-272 # 0 <tvec_user-0x100>
 118:	020f1863          	bnez	t5,148 <mrts_routine>
 11c:	00000f17          	auipc	t5,0x0
 120:	ee4f0f13          	addi	t5,t5,-284 # 0 <tvec_user-0x100>
 124:	000f0463          	beqz	t5,12c <tvec_user+0x2c>
 128:	ed9ff06f          	j	0 <tvec_user-0x100>
 12c:	0540006f          	j	180 <other_exception>
 130:	00000013          	nop
 134:	00000013          	nop
 138:	00000013          	nop
 13c:	00000013          	nop

0000000000000140 <tvec_supervisor>:
 140:	34202f73          	csrr	t5,mcause
 144:	fa0f5ee3          	bgez	t5,100 <tvec_user>

0000000000000148 <mrts_routine>:
 148:	30500073          	mrts
 14c:	00000013          	nop
 150:	00000013          	nop
 154:	00000013          	nop
 158:	00000013          	nop
 15c:	00000013          	nop
 160:	00000013          	nop
 164:	00000013          	nop
 168:	00000013          	nop
 16c:	00000013          	nop
 170:	00000013          	nop
 174:	00000013          	nop
 178:	00000013          	nop
 17c:	00000013          	nop

0000000000000180 <other_exception>:
 180:	539e6e13          	ori	t3,t3,1337

0000000000000184 <write_tohost>:
 184:	780e1073          	csrw	mtohost,t3
 188:	ffdff06f          	j	184 <write_tohost>
 18c:	00000013          	nop
 190:	00000013          	nop
 194:	00000013          	nop
 198:	00000013          	nop
 19c:	00000013          	nop
 1a0:	00000013          	nop
 1a4:	00000013          	nop
 1a8:	00000013          	nop
 1ac:	00000013          	nop
 1b0:	00000013          	nop
 1b4:	00000013          	nop
 1b8:	00000013          	nop
 1bc:	00000013          	nop

00000000000001c0 <tvec_machine>:
 1c0:	00000f17          	auipc	t5,0x0
 1c4:	330f0f13          	addi	t5,t5,816 # 4f0 <ecall>
 1c8:	34102ff3          	csrr	t6,mepc
 1cc:	fbff0ce3          	beq	t5,t6,184 <write_tohost>
 1d0:	00000f17          	auipc	t5,0x0
 1d4:	e30f0f13          	addi	t5,t5,-464 # 0 <tvec_user-0x100>
 1d8:	000f0463          	beqz	t5,1e0 <tvec_machine+0x20>
 1dc:	e25ff06f          	j	0 <tvec_user-0x100>
 1e0:	fa1ff06f          	j	180 <other_exception>
 1e4:	00000013          	nop
 1e8:	00000013          	nop
 1ec:	00000013          	nop
 1f0:	00000013          	nop
 1f4:	00000013          	nop
 1f8:	00000013          	nop
 1fc:	00000013          	nop

0000000000000200 <_start>:
 200:	f1002573          	csrr	a0,mhartid
 204:	00051063          	bnez	a0,204 <_start+0x4>
 208:	f0002573          	csrr	a0,mcpuid
 20c:	00054863          	bltz	a0,21c <_start+0x1c>
 210:	0ff0000f          	fence
 214:	00100e13          	li	t3,1
 218:	2d80006f          	j	4f0 <ecall>
 21c:	00000e13          	li	t3,0
 220:	00000297          	auipc	t0,0x0
 224:	de028293          	addi	t0,t0,-544 # 0 <tvec_user-0x100>
 228:	00028463          	beqz	t0,230 <_start+0x30>
 22c:	10129073          	csrw	stvec,t0
 230:	1f800293          	li	t0,504
 234:	3002b073          	csrc	mstatus,t0
 238:	00000297          	auipc	t0,0x0
 23c:	01428293          	addi	t0,t0,20 # 24c <test_2>
 240:	34129073          	csrw	mepc,t0
 244:	f1002573          	csrr	a0,mhartid
 248:	10000073          	eret

000000000000024c <test_2>:
 24c:	00100093          	li	ra,1
 250:	0000919b          	slliw	gp,ra,0x0
 254:	00100e93          	li	t4,1
 258:	00200e13          	li	t3,2
 25c:	27d19a63          	bne	gp,t4,4d0 <fail>

0000000000000260 <test_3>:
 260:	00100093          	li	ra,1
 264:	0010919b          	slliw	gp,ra,0x1
 268:	00200e93          	li	t4,2
 26c:	00300e13          	li	t3,3
 270:	27d19063          	bne	gp,t4,4d0 <fail>

0000000000000274 <test_4>:
 274:	00100093          	li	ra,1
 278:	0070919b          	slliw	gp,ra,0x7
 27c:	08000e93          	li	t4,128
 280:	00400e13          	li	t3,4
 284:	25d19663          	bne	gp,t4,4d0 <fail>

0000000000000288 <test_5>:
 288:	00100093          	li	ra,1
 28c:	00e0919b          	slliw	gp,ra,0xe
 290:	00004eb7          	lui	t4,0x4
 294:	00500e13          	li	t3,5
 298:	23d19c63          	bne	gp,t4,4d0 <fail>

000000000000029c <test_6>:
 29c:	00100093          	li	ra,1
 2a0:	01f0919b          	slliw	gp,ra,0x1f
 2a4:	80000eb7          	lui	t4,0x80000
 2a8:	00600e13          	li	t3,6
 2ac:	23d19263          	bne	gp,t4,4d0 <fail>

00000000000002b0 <test_7>:
 2b0:	fff00093          	li	ra,-1
 2b4:	0000919b          	slliw	gp,ra,0x0
 2b8:	fff00e93          	li	t4,-1
 2bc:	00700e13          	li	t3,7
 2c0:	21d19863          	bne	gp,t4,4d0 <fail>

00000000000002c4 <test_8>:
 2c4:	fff00093          	li	ra,-1
 2c8:	0010919b          	slliw	gp,ra,0x1
 2cc:	ffe00e93          	li	t4,-2
 2d0:	00800e13          	li	t3,8
 2d4:	1fd19e63          	bne	gp,t4,4d0 <fail>

00000000000002d8 <test_9>:
 2d8:	fff00093          	li	ra,-1
 2dc:	0070919b          	slliw	gp,ra,0x7
 2e0:	f8000e93          	li	t4,-128
 2e4:	00900e13          	li	t3,9
 2e8:	1fd19463          	bne	gp,t4,4d0 <fail>

00000000000002ec <test_10>:
 2ec:	fff00093          	li	ra,-1
 2f0:	00e0919b          	slliw	gp,ra,0xe
 2f4:	ffffceb7          	lui	t4,0xffffc
 2f8:	00a00e13          	li	t3,10
 2fc:	1dd19a63          	bne	gp,t4,4d0 <fail>

0000000000000300 <test_11>:
 300:	fff00093          	li	ra,-1
 304:	01f0919b          	slliw	gp,ra,0x1f
 308:	80000eb7          	lui	t4,0x80000
 30c:	00b00e13          	li	t3,11
 310:	1dd19063          	bne	gp,t4,4d0 <fail>

0000000000000314 <test_12>:
 314:	212120b7          	lui	ra,0x21212
 318:	1210809b          	addiw	ra,ra,289
 31c:	0000919b          	slliw	gp,ra,0x0
 320:	21212eb7          	lui	t4,0x21212
 324:	121e8e9b          	addiw	t4,t4,289
 328:	00c00e13          	li	t3,12
 32c:	1bd19263          	bne	gp,t4,4d0 <fail>

0000000000000330 <test_13>:
 330:	212120b7          	lui	ra,0x21212
 334:	1210809b          	addiw	ra,ra,289
 338:	0010919b          	slliw	gp,ra,0x1
 33c:	42424eb7          	lui	t4,0x42424
 340:	242e8e9b          	addiw	t4,t4,578
 344:	00d00e13          	li	t3,13
 348:	19d19463          	bne	gp,t4,4d0 <fail>

000000000000034c <test_14>:
 34c:	212120b7          	lui	ra,0x21212
 350:	1210809b          	addiw	ra,ra,289
 354:	0070919b          	slliw	gp,ra,0x7
 358:	90909eb7          	lui	t4,0x90909
 35c:	080e8e9b          	addiw	t4,t4,128
 360:	00e00e13          	li	t3,14
 364:	17d19663          	bne	gp,t4,4d0 <fail>

0000000000000368 <test_15>:
 368:	212120b7          	lui	ra,0x21212
 36c:	1210809b          	addiw	ra,ra,289
 370:	00e0919b          	slliw	gp,ra,0xe
 374:	48484eb7          	lui	t4,0x48484
 378:	00f00e13          	li	t3,15
 37c:	15d19a63          	bne	gp,t4,4d0 <fail>

0000000000000380 <test_16>:
 380:	212120b7          	lui	ra,0x21212
 384:	1210809b          	addiw	ra,ra,289
 388:	01f0919b          	slliw	gp,ra,0x1f
 38c:	80000eb7          	lui	t4,0x80000
 390:	01000e13          	li	t3,16
 394:	13d19e63          	bne	gp,t4,4d0 <fail>

0000000000000398 <test_17>:
 398:	00100093          	li	ra,1
 39c:	0070909b          	slliw	ra,ra,0x7
 3a0:	08000e93          	li	t4,128
 3a4:	01100e13          	li	t3,17
 3a8:	13d09463          	bne	ra,t4,4d0 <fail>

00000000000003ac <test_18>:
 3ac:	00000213          	li	tp,0
 3b0:	00100093          	li	ra,1
 3b4:	0070919b          	slliw	gp,ra,0x7
 3b8:	00018313          	mv	t1,gp
 3bc:	00120213          	addi	tp,tp,1 # 1 <tvec_user-0xff>
 3c0:	00200293          	li	t0,2
 3c4:	fe5216e3          	bne	tp,t0,3b0 <test_18+0x4>
 3c8:	08000e93          	li	t4,128
 3cc:	01200e13          	li	t3,18
 3d0:	11d31063          	bne	t1,t4,4d0 <fail>

00000000000003d4 <test_19>:
 3d4:	00000213          	li	tp,0
 3d8:	00100093          	li	ra,1
 3dc:	00e0919b          	slliw	gp,ra,0xe
 3e0:	00000013          	nop
 3e4:	00018313          	mv	t1,gp
 3e8:	00120213          	addi	tp,tp,1 # 1 <tvec_user-0xff>
 3ec:	00200293          	li	t0,2
 3f0:	fe5214e3          	bne	tp,t0,3d8 <test_19+0x4>
 3f4:	00004eb7          	lui	t4,0x4
 3f8:	01300e13          	li	t3,19
 3fc:	0dd31a63          	bne	t1,t4,4d0 <fail>

0000000000000400 <test_20>:
 400:	00000213          	li	tp,0
 404:	00100093          	li	ra,1
 408:	01f0919b          	slliw	gp,ra,0x1f
 40c:	00000013          	nop
 410:	00000013          	nop
 414:	00018313          	mv	t1,gp
 418:	00120213          	addi	tp,tp,1 # 1 <tvec_user-0xff>
 41c:	00200293          	li	t0,2
 420:	fe5212e3          	bne	tp,t0,404 <test_20+0x4>
 424:	80000eb7          	lui	t4,0x80000
 428:	01400e13          	li	t3,20
 42c:	0bd31263          	bne	t1,t4,4d0 <fail>

0000000000000430 <test_21>:
 430:	00000213          	li	tp,0
 434:	00100093          	li	ra,1
 438:	0070919b          	slliw	gp,ra,0x7
 43c:	00120213          	addi	tp,tp,1 # 1 <tvec_user-0xff>
 440:	00200293          	li	t0,2
 444:	fe5218e3          	bne	tp,t0,434 <test_21+0x4>
 448:	08000e93          	li	t4,128
 44c:	01500e13          	li	t3,21
 450:	09d19063          	bne	gp,t4,4d0 <fail>

0000000000000454 <test_22>:
 454:	00000213          	li	tp,0
 458:	00100093          	li	ra,1
 45c:	00000013          	nop
 460:	00e0919b          	slliw	gp,ra,0xe
 464:	00120213          	addi	tp,tp,1 # 1 <tvec_user-0xff>
 468:	00200293          	li	t0,2
 46c:	fe5216e3          	bne	tp,t0,458 <test_22+0x4>
 470:	00004eb7          	lui	t4,0x4
 474:	01600e13          	li	t3,22
 478:	05d19c63          	bne	gp,t4,4d0 <fail>

000000000000047c <test_23>:
 47c:	00000213          	li	tp,0
 480:	00100093          	li	ra,1
 484:	00000013          	nop
 488:	00000013          	nop
 48c:	01f0919b          	slliw	gp,ra,0x1f
 490:	00120213          	addi	tp,tp,1 # 1 <tvec_user-0xff>
 494:	00200293          	li	t0,2
 498:	fe5214e3          	bne	tp,t0,480 <test_23+0x4>
 49c:	80000eb7          	lui	t4,0x80000
 4a0:	01700e13          	li	t3,23
 4a4:	03d19663          	bne	gp,t4,4d0 <fail>

00000000000004a8 <test_24>:
 4a8:	01f0109b          	slliw	ra,zero,0x1f
 4ac:	00000e93          	li	t4,0
 4b0:	01800e13          	li	t3,24
 4b4:	01d09e63          	bne	ra,t4,4d0 <fail>

00000000000004b8 <test_25>:
 4b8:	01f00093          	li	ra,31
 4bc:	01c0901b          	slliw	zero,ra,0x1c
 4c0:	00000e93          	li	t4,0
 4c4:	01900e13          	li	t3,25
 4c8:	01d01463          	bne	zero,t4,4d0 <fail>
 4cc:	01c01c63          	bne	zero,t3,4e4 <pass>

00000000000004d0 <fail>:
 4d0:	0ff0000f          	fence
 4d4:	000e0063          	beqz	t3,4d4 <fail+0x4>
 4d8:	001e1e13          	slli	t3,t3,0x1
 4dc:	001e6e13          	ori	t3,t3,1
 4e0:	0100006f          	j	4f0 <ecall>

00000000000004e4 <pass>:
 4e4:	0ff0000f          	fence
 4e8:	00100e13          	li	t3,1
 4ec:	0040006f          	j	4f0 <ecall>

00000000000004f0 <ecall>:
 4f0:	00000073          	ecall
 4f4:	ffdff06f          	j	4f0 <ecall>
