
rv64ui-p-ld:     file format elf64-littleriscv


Disassembly of section .text:

0000000000000100 <tvec_user>:
 100:	00000f17          	auipc	t5,0x0
 104:	538f0f13          	addi	t5,t5,1336 # 638 <ecall>
 108:	34102ff3          	csrr	t6,mepc
 10c:	07ff0c63          	beq	t5,t6,184 <write_tohost>
 110:	00000f17          	auipc	t5,0x0
 114:	ef0f0f13          	addi	t5,t5,-272 # 0 <tvec_user-0x100>
 118:	020f1863          	bnez	t5,148 <mrts_routine>
 11c:	00000f17          	auipc	t5,0x0
 120:	ee4f0f13          	addi	t5,t5,-284 # 0 <tvec_user-0x100>
 124:	000f0463          	beqz	t5,12c <tvec_user+0x2c>
 128:	ed9ff06f          	j	0 <tvec_user-0x100>
 12c:	0540006f          	j	180 <other_exception>
 130:	00000013          	nop
 134:	00000013          	nop
 138:	00000013          	nop
 13c:	00000013          	nop

0000000000000140 <tvec_supervisor>:
 140:	34202f73          	csrr	t5,mcause
 144:	fa0f5ee3          	bgez	t5,100 <tvec_user>

0000000000000148 <mrts_routine>:
 148:	30500073          	mrts
 14c:	00000013          	nop
 150:	00000013          	nop
 154:	00000013          	nop
 158:	00000013          	nop
 15c:	00000013          	nop
 160:	00000013          	nop
 164:	00000013          	nop
 168:	00000013          	nop
 16c:	00000013          	nop
 170:	00000013          	nop
 174:	00000013          	nop
 178:	00000013          	nop
 17c:	00000013          	nop

0000000000000180 <other_exception>:
 180:	539e6e13          	ori	t3,t3,1337

0000000000000184 <write_tohost>:
 184:	780e1073          	csrw	mtohost,t3
 188:	ffdff06f          	j	184 <write_tohost>
 18c:	00000013          	nop
 190:	00000013          	nop
 194:	00000013          	nop
 198:	00000013          	nop
 19c:	00000013          	nop
 1a0:	00000013          	nop
 1a4:	00000013          	nop
 1a8:	00000013          	nop
 1ac:	00000013          	nop
 1b0:	00000013          	nop
 1b4:	00000013          	nop
 1b8:	00000013          	nop
 1bc:	00000013          	nop

00000000000001c0 <tvec_machine>:
 1c0:	00000f17          	auipc	t5,0x0
 1c4:	478f0f13          	addi	t5,t5,1144 # 638 <ecall>
 1c8:	34102ff3          	csrr	t6,mepc
 1cc:	fbff0ce3          	beq	t5,t6,184 <write_tohost>
 1d0:	00000f17          	auipc	t5,0x0
 1d4:	e30f0f13          	addi	t5,t5,-464 # 0 <tvec_user-0x100>
 1d8:	000f0463          	beqz	t5,1e0 <tvec_machine+0x20>
 1dc:	e25ff06f          	j	0 <tvec_user-0x100>
 1e0:	fa1ff06f          	j	180 <other_exception>
 1e4:	00000013          	nop
 1e8:	00000013          	nop
 1ec:	00000013          	nop
 1f0:	00000013          	nop
 1f4:	00000013          	nop
 1f8:	00000013          	nop
 1fc:	00000013          	nop

0000000000000200 <_start>:
 200:	f1002573          	csrr	a0,mhartid
 204:	00051063          	bnez	a0,204 <_start+0x4>
 208:	f0002573          	csrr	a0,mcpuid
 20c:	00054863          	bltz	a0,21c <_start+0x1c>
 210:	0ff0000f          	fence
 214:	00100e13          	li	t3,1
 218:	4200006f          	j	638 <ecall>
 21c:	00000e13          	li	t3,0
 220:	00000297          	auipc	t0,0x0
 224:	de028293          	addi	t0,t0,-544 # 0 <tvec_user-0x100>
 228:	00028463          	beqz	t0,230 <_start+0x30>
 22c:	10129073          	csrw	stvec,t0
 230:	1f800293          	li	t0,504
 234:	3002b073          	csrc	mstatus,t0
 238:	00000297          	auipc	t0,0x0
 23c:	01428293          	addi	t0,t0,20 # 24c <test_2>
 240:	34129073          	csrw	mepc,t0
 244:	f1002573          	csrr	a0,mhartid
 248:	10000073          	eret

000000000000024c <test_2>:
 24c:	00001097          	auipc	ra,0x1
 250:	db408093          	addi	ra,ra,-588 # 1000 <begin_signature>
 254:	0000b183          	ld	gp,0(ra)
 258:	00ff0eb7          	lui	t4,0xff0
 25c:	0ffe8e9b          	addiw	t4,t4,255
 260:	010e9e93          	slli	t4,t4,0x10
 264:	0ffe8e93          	addi	t4,t4,255 # ff00ff <_end+0xfef0df>
 268:	010e9e93          	slli	t4,t4,0x10
 26c:	0ffe8e93          	addi	t4,t4,255
 270:	00200e13          	li	t3,2
 274:	3bd19263          	bne	gp,t4,618 <fail>

0000000000000278 <test_3>:
 278:	00001097          	auipc	ra,0x1
 27c:	d8808093          	addi	ra,ra,-632 # 1000 <begin_signature>
 280:	0080b183          	ld	gp,8(ra)
 284:	ff010eb7          	lui	t4,0xff010
 288:	f01e8e9b          	addiw	t4,t4,-255
 28c:	010e9e93          	slli	t4,t4,0x10
 290:	f01e8e93          	addi	t4,t4,-255 # ffffffffff00ff01 <_end+0xffffffffff00eee1>
 294:	010e9e93          	slli	t4,t4,0x10
 298:	f00e8e93          	addi	t4,t4,-256
 29c:	00300e13          	li	t3,3
 2a0:	37d19c63          	bne	gp,t4,618 <fail>

00000000000002a4 <test_4>:
 2a4:	00001097          	auipc	ra,0x1
 2a8:	d5c08093          	addi	ra,ra,-676 # 1000 <begin_signature>
 2ac:	0100b183          	ld	gp,16(ra)
 2b0:	00010eb7          	lui	t4,0x10
 2b4:	f01e8e9b          	addiw	t4,t4,-255
 2b8:	010e9e93          	slli	t4,t4,0x10
 2bc:	f01e8e93          	addi	t4,t4,-255 # ff01 <_end+0xeee1>
 2c0:	010e9e93          	slli	t4,t4,0x10
 2c4:	f01e8e93          	addi	t4,t4,-255
 2c8:	00ce9e93          	slli	t4,t4,0xc
 2cc:	ff0e8e93          	addi	t4,t4,-16
 2d0:	00400e13          	li	t3,4
 2d4:	35d19263          	bne	gp,t4,618 <fail>

00000000000002d8 <test_5>:
 2d8:	00001097          	auipc	ra,0x1
 2dc:	d2808093          	addi	ra,ra,-728 # 1000 <begin_signature>
 2e0:	0180b183          	ld	gp,24(ra)
 2e4:	ffff0eb7          	lui	t4,0xffff0
 2e8:	0ffe8e9b          	addiw	t4,t4,255
 2ec:	010e9e93          	slli	t4,t4,0x10
 2f0:	0ffe8e93          	addi	t4,t4,255 # ffffffffffff00ff <_end+0xfffffffffffef0df>
 2f4:	010e9e93          	slli	t4,t4,0x10
 2f8:	0ffe8e93          	addi	t4,t4,255
 2fc:	00ce9e93          	slli	t4,t4,0xc
 300:	00fe8e93          	addi	t4,t4,15
 304:	00500e13          	li	t3,5
 308:	31d19863          	bne	gp,t4,618 <fail>

000000000000030c <test_6>:
 30c:	00001097          	auipc	ra,0x1
 310:	d0c08093          	addi	ra,ra,-756 # 1018 <tdat4>
 314:	fe80b183          	ld	gp,-24(ra)
 318:	00ff0eb7          	lui	t4,0xff0
 31c:	0ffe8e9b          	addiw	t4,t4,255
 320:	010e9e93          	slli	t4,t4,0x10
 324:	0ffe8e93          	addi	t4,t4,255 # ff00ff <_end+0xfef0df>
 328:	010e9e93          	slli	t4,t4,0x10
 32c:	0ffe8e93          	addi	t4,t4,255
 330:	00600e13          	li	t3,6
 334:	2fd19263          	bne	gp,t4,618 <fail>

0000000000000338 <test_7>:
 338:	00001097          	auipc	ra,0x1
 33c:	ce008093          	addi	ra,ra,-800 # 1018 <tdat4>
 340:	ff00b183          	ld	gp,-16(ra)
 344:	ff010eb7          	lui	t4,0xff010
 348:	f01e8e9b          	addiw	t4,t4,-255
 34c:	010e9e93          	slli	t4,t4,0x10
 350:	f01e8e93          	addi	t4,t4,-255 # ffffffffff00ff01 <_end+0xffffffffff00eee1>
 354:	010e9e93          	slli	t4,t4,0x10
 358:	f00e8e93          	addi	t4,t4,-256
 35c:	00700e13          	li	t3,7
 360:	2bd19c63          	bne	gp,t4,618 <fail>

0000000000000364 <test_8>:
 364:	00001097          	auipc	ra,0x1
 368:	cb408093          	addi	ra,ra,-844 # 1018 <tdat4>
 36c:	ff80b183          	ld	gp,-8(ra)
 370:	00010eb7          	lui	t4,0x10
 374:	f01e8e9b          	addiw	t4,t4,-255
 378:	010e9e93          	slli	t4,t4,0x10
 37c:	f01e8e93          	addi	t4,t4,-255 # ff01 <_end+0xeee1>
 380:	010e9e93          	slli	t4,t4,0x10
 384:	f01e8e93          	addi	t4,t4,-255
 388:	00ce9e93          	slli	t4,t4,0xc
 38c:	ff0e8e93          	addi	t4,t4,-16
 390:	00800e13          	li	t3,8
 394:	29d19263          	bne	gp,t4,618 <fail>

0000000000000398 <test_9>:
 398:	00001097          	auipc	ra,0x1
 39c:	c8008093          	addi	ra,ra,-896 # 1018 <tdat4>
 3a0:	0000b183          	ld	gp,0(ra)
 3a4:	ffff0eb7          	lui	t4,0xffff0
 3a8:	0ffe8e9b          	addiw	t4,t4,255
 3ac:	010e9e93          	slli	t4,t4,0x10
 3b0:	0ffe8e93          	addi	t4,t4,255 # ffffffffffff00ff <_end+0xfffffffffffef0df>
 3b4:	010e9e93          	slli	t4,t4,0x10
 3b8:	0ffe8e93          	addi	t4,t4,255
 3bc:	00ce9e93          	slli	t4,t4,0xc
 3c0:	00fe8e93          	addi	t4,t4,15
 3c4:	00900e13          	li	t3,9
 3c8:	25d19863          	bne	gp,t4,618 <fail>

00000000000003cc <test_10>:
 3cc:	00001097          	auipc	ra,0x1
 3d0:	c3408093          	addi	ra,ra,-972 # 1000 <begin_signature>
 3d4:	fe008093          	addi	ra,ra,-32
 3d8:	0200b183          	ld	gp,32(ra)
 3dc:	00ff0eb7          	lui	t4,0xff0
 3e0:	0ffe8e9b          	addiw	t4,t4,255
 3e4:	010e9e93          	slli	t4,t4,0x10
 3e8:	0ffe8e93          	addi	t4,t4,255 # ff00ff <_end+0xfef0df>
 3ec:	010e9e93          	slli	t4,t4,0x10
 3f0:	0ffe8e93          	addi	t4,t4,255
 3f4:	00a00e13          	li	t3,10
 3f8:	23d19063          	bne	gp,t4,618 <fail>

00000000000003fc <test_11>:
 3fc:	00001097          	auipc	ra,0x1
 400:	c0408093          	addi	ra,ra,-1020 # 1000 <begin_signature>
 404:	ffd08093          	addi	ra,ra,-3
 408:	00b0b183          	ld	gp,11(ra)
 40c:	ff010eb7          	lui	t4,0xff010
 410:	f01e8e9b          	addiw	t4,t4,-255
 414:	010e9e93          	slli	t4,t4,0x10
 418:	f01e8e93          	addi	t4,t4,-255 # ffffffffff00ff01 <_end+0xffffffffff00eee1>
 41c:	010e9e93          	slli	t4,t4,0x10
 420:	f00e8e93          	addi	t4,t4,-256
 424:	00b00e13          	li	t3,11
 428:	1fd19863          	bne	gp,t4,618 <fail>

000000000000042c <test_12>:
 42c:	00c00e13          	li	t3,12
 430:	00000213          	li	tp,0
 434:	00001097          	auipc	ra,0x1
 438:	bd408093          	addi	ra,ra,-1068 # 1008 <tdat2>
 43c:	0080b183          	ld	gp,8(ra)
 440:	00018313          	mv	t1,gp
 444:	00010eb7          	lui	t4,0x10
 448:	f01e8e9b          	addiw	t4,t4,-255
 44c:	010e9e93          	slli	t4,t4,0x10
 450:	f01e8e93          	addi	t4,t4,-255 # ff01 <_end+0xeee1>
 454:	010e9e93          	slli	t4,t4,0x10
 458:	f01e8e93          	addi	t4,t4,-255
 45c:	00ce9e93          	slli	t4,t4,0xc
 460:	ff0e8e93          	addi	t4,t4,-16
 464:	1bd31a63          	bne	t1,t4,618 <fail>
 468:	00120213          	addi	tp,tp,1 # 1 <tvec_user-0xff>
 46c:	00200293          	li	t0,2
 470:	fc5212e3          	bne	tp,t0,434 <test_12+0x8>

0000000000000474 <test_13>:
 474:	00d00e13          	li	t3,13
 478:	00000213          	li	tp,0
 47c:	00001097          	auipc	ra,0x1
 480:	b9408093          	addi	ra,ra,-1132 # 1010 <tdat3>
 484:	0080b183          	ld	gp,8(ra)
 488:	00000013          	nop
 48c:	00018313          	mv	t1,gp
 490:	ffff0eb7          	lui	t4,0xffff0
 494:	0ffe8e9b          	addiw	t4,t4,255
 498:	010e9e93          	slli	t4,t4,0x10
 49c:	0ffe8e93          	addi	t4,t4,255 # ffffffffffff00ff <_end+0xfffffffffffef0df>
 4a0:	010e9e93          	slli	t4,t4,0x10
 4a4:	0ffe8e93          	addi	t4,t4,255
 4a8:	00ce9e93          	slli	t4,t4,0xc
 4ac:	00fe8e93          	addi	t4,t4,15
 4b0:	17d31463          	bne	t1,t4,618 <fail>
 4b4:	00120213          	addi	tp,tp,1 # 1 <tvec_user-0xff>
 4b8:	00200293          	li	t0,2
 4bc:	fc5210e3          	bne	tp,t0,47c <test_13+0x8>

00000000000004c0 <test_14>:
 4c0:	00e00e13          	li	t3,14
 4c4:	00000213          	li	tp,0
 4c8:	00001097          	auipc	ra,0x1
 4cc:	b3808093          	addi	ra,ra,-1224 # 1000 <begin_signature>
 4d0:	0080b183          	ld	gp,8(ra)
 4d4:	00000013          	nop
 4d8:	00000013          	nop
 4dc:	00018313          	mv	t1,gp
 4e0:	ff010eb7          	lui	t4,0xff010
 4e4:	f01e8e9b          	addiw	t4,t4,-255
 4e8:	010e9e93          	slli	t4,t4,0x10
 4ec:	f01e8e93          	addi	t4,t4,-255 # ffffffffff00ff01 <_end+0xffffffffff00eee1>
 4f0:	010e9e93          	slli	t4,t4,0x10
 4f4:	f00e8e93          	addi	t4,t4,-256
 4f8:	13d31063          	bne	t1,t4,618 <fail>
 4fc:	00120213          	addi	tp,tp,1 # 1 <tvec_user-0xff>
 500:	00200293          	li	t0,2
 504:	fc5212e3          	bne	tp,t0,4c8 <test_14+0x8>

0000000000000508 <test_15>:
 508:	00f00e13          	li	t3,15
 50c:	00000213          	li	tp,0
 510:	00001097          	auipc	ra,0x1
 514:	af808093          	addi	ra,ra,-1288 # 1008 <tdat2>
 518:	0080b183          	ld	gp,8(ra)
 51c:	00010eb7          	lui	t4,0x10
 520:	f01e8e9b          	addiw	t4,t4,-255
 524:	010e9e93          	slli	t4,t4,0x10
 528:	f01e8e93          	addi	t4,t4,-255 # ff01 <_end+0xeee1>
 52c:	010e9e93          	slli	t4,t4,0x10
 530:	f01e8e93          	addi	t4,t4,-255
 534:	00ce9e93          	slli	t4,t4,0xc
 538:	ff0e8e93          	addi	t4,t4,-16
 53c:	0dd19e63          	bne	gp,t4,618 <fail>
 540:	00120213          	addi	tp,tp,1 # 1 <tvec_user-0xff>
 544:	00200293          	li	t0,2
 548:	fc5214e3          	bne	tp,t0,510 <test_15+0x8>

000000000000054c <test_16>:
 54c:	01000e13          	li	t3,16
 550:	00000213          	li	tp,0
 554:	00001097          	auipc	ra,0x1
 558:	abc08093          	addi	ra,ra,-1348 # 1010 <tdat3>
 55c:	00000013          	nop
 560:	0080b183          	ld	gp,8(ra)
 564:	ffff0eb7          	lui	t4,0xffff0
 568:	0ffe8e9b          	addiw	t4,t4,255
 56c:	010e9e93          	slli	t4,t4,0x10
 570:	0ffe8e93          	addi	t4,t4,255 # ffffffffffff00ff <_end+0xfffffffffffef0df>
 574:	010e9e93          	slli	t4,t4,0x10
 578:	0ffe8e93          	addi	t4,t4,255
 57c:	00ce9e93          	slli	t4,t4,0xc
 580:	00fe8e93          	addi	t4,t4,15
 584:	09d19a63          	bne	gp,t4,618 <fail>
 588:	00120213          	addi	tp,tp,1 # 1 <tvec_user-0xff>
 58c:	00200293          	li	t0,2
 590:	fc5212e3          	bne	tp,t0,554 <test_16+0x8>

0000000000000594 <test_17>:
 594:	01100e13          	li	t3,17
 598:	00000213          	li	tp,0
 59c:	00001097          	auipc	ra,0x1
 5a0:	a6408093          	addi	ra,ra,-1436 # 1000 <begin_signature>
 5a4:	00000013          	nop
 5a8:	00000013          	nop
 5ac:	0080b183          	ld	gp,8(ra)
 5b0:	ff010eb7          	lui	t4,0xff010
 5b4:	f01e8e9b          	addiw	t4,t4,-255
 5b8:	010e9e93          	slli	t4,t4,0x10
 5bc:	f01e8e93          	addi	t4,t4,-255 # ffffffffff00ff01 <_end+0xffffffffff00eee1>
 5c0:	010e9e93          	slli	t4,t4,0x10
 5c4:	f00e8e93          	addi	t4,t4,-256
 5c8:	05d19863          	bne	gp,t4,618 <fail>
 5cc:	00120213          	addi	tp,tp,1 # 1 <tvec_user-0xff>
 5d0:	00200293          	li	t0,2
 5d4:	fc5214e3          	bne	tp,t0,59c <test_17+0x8>

00000000000005d8 <test_18>:
 5d8:	00001197          	auipc	gp,0x1
 5dc:	a2818193          	addi	gp,gp,-1496 # 1000 <begin_signature>
 5e0:	0001b103          	ld	sp,0(gp)
 5e4:	00200113          	li	sp,2
 5e8:	00200e93          	li	t4,2
 5ec:	01200e13          	li	t3,18
 5f0:	03d11463          	bne	sp,t4,618 <fail>

00000000000005f4 <test_19>:
 5f4:	00001197          	auipc	gp,0x1
 5f8:	a0c18193          	addi	gp,gp,-1524 # 1000 <begin_signature>
 5fc:	0001b103          	ld	sp,0(gp)
 600:	00000013          	nop
 604:	00200113          	li	sp,2
 608:	00200e93          	li	t4,2
 60c:	01300e13          	li	t3,19
 610:	01d11463          	bne	sp,t4,618 <fail>
 614:	01c01c63          	bne	zero,t3,62c <pass>

0000000000000618 <fail>:
 618:	0ff0000f          	fence
 61c:	000e0063          	beqz	t3,61c <fail+0x4>
 620:	001e1e13          	slli	t3,t3,0x1
 624:	001e6e13          	ori	t3,t3,1
 628:	0100006f          	j	638 <ecall>

000000000000062c <pass>:
 62c:	0ff0000f          	fence
 630:	00100e13          	li	t3,1
 634:	0040006f          	j	638 <ecall>

0000000000000638 <ecall>:
 638:	00000073          	ecall
 63c:	ffdff06f          	j	638 <ecall>
