
rv64ui-p-lh:     file format elf64-littleriscv


Disassembly of section .text:

0000000000000100 <tvec_user>:
 100:	00000f17          	auipc	t5,0x0
 104:	3d8f0f13          	addi	t5,t5,984 # 4d8 <ecall>
 108:	34102ff3          	csrr	t6,mepc
 10c:	07ff0c63          	beq	t5,t6,184 <write_tohost>
 110:	00000f17          	auipc	t5,0x0
 114:	ef0f0f13          	addi	t5,t5,-272 # 0 <tvec_user-0x100>
 118:	020f1863          	bnez	t5,148 <mrts_routine>
 11c:	00000f17          	auipc	t5,0x0
 120:	ee4f0f13          	addi	t5,t5,-284 # 0 <tvec_user-0x100>
 124:	000f0463          	beqz	t5,12c <tvec_user+0x2c>
 128:	ed9ff06f          	j	0 <tvec_user-0x100>
 12c:	0540006f          	j	180 <other_exception>
 130:	00000013          	nop
 134:	00000013          	nop
 138:	00000013          	nop
 13c:	00000013          	nop

0000000000000140 <tvec_supervisor>:
 140:	34202f73          	csrr	t5,mcause
 144:	fa0f5ee3          	bgez	t5,100 <tvec_user>

0000000000000148 <mrts_routine>:
 148:	30500073          	mrts
 14c:	00000013          	nop
 150:	00000013          	nop
 154:	00000013          	nop
 158:	00000013          	nop
 15c:	00000013          	nop
 160:	00000013          	nop
 164:	00000013          	nop
 168:	00000013          	nop
 16c:	00000013          	nop
 170:	00000013          	nop
 174:	00000013          	nop
 178:	00000013          	nop
 17c:	00000013          	nop

0000000000000180 <other_exception>:
 180:	539e6e13          	ori	t3,t3,1337

0000000000000184 <write_tohost>:
 184:	780e1073          	csrw	mtohost,t3
 188:	ffdff06f          	j	184 <write_tohost>
 18c:	00000013          	nop
 190:	00000013          	nop
 194:	00000013          	nop
 198:	00000013          	nop
 19c:	00000013          	nop
 1a0:	00000013          	nop
 1a4:	00000013          	nop
 1a8:	00000013          	nop
 1ac:	00000013          	nop
 1b0:	00000013          	nop
 1b4:	00000013          	nop
 1b8:	00000013          	nop
 1bc:	00000013          	nop

00000000000001c0 <tvec_machine>:
 1c0:	00000f17          	auipc	t5,0x0
 1c4:	318f0f13          	addi	t5,t5,792 # 4d8 <ecall>
 1c8:	34102ff3          	csrr	t6,mepc
 1cc:	fbff0ce3          	beq	t5,t6,184 <write_tohost>
 1d0:	00000f17          	auipc	t5,0x0
 1d4:	e30f0f13          	addi	t5,t5,-464 # 0 <tvec_user-0x100>
 1d8:	000f0463          	beqz	t5,1e0 <tvec_machine+0x20>
 1dc:	e25ff06f          	j	0 <tvec_user-0x100>
 1e0:	fa1ff06f          	j	180 <other_exception>
 1e4:	00000013          	nop
 1e8:	00000013          	nop
 1ec:	00000013          	nop
 1f0:	00000013          	nop
 1f4:	00000013          	nop
 1f8:	00000013          	nop
 1fc:	00000013          	nop

0000000000000200 <_start>:
 200:	f1002573          	csrr	a0,mhartid
 204:	00051063          	bnez	a0,204 <_start+0x4>
 208:	f0002573          	csrr	a0,mcpuid
 20c:	00054863          	bltz	a0,21c <_start+0x1c>
 210:	0ff0000f          	fence
 214:	00100e13          	li	t3,1
 218:	2c00006f          	j	4d8 <ecall>
 21c:	00000e13          	li	t3,0
 220:	00000297          	auipc	t0,0x0
 224:	de028293          	addi	t0,t0,-544 # 0 <tvec_user-0x100>
 228:	00028463          	beqz	t0,230 <_start+0x30>
 22c:	10129073          	csrw	stvec,t0
 230:	1f800293          	li	t0,504
 234:	3002b073          	csrc	mstatus,t0
 238:	00000297          	auipc	t0,0x0
 23c:	01428293          	addi	t0,t0,20 # 24c <test_2>
 240:	34129073          	csrw	mepc,t0
 244:	f1002573          	csrr	a0,mhartid
 248:	10000073          	eret

000000000000024c <test_2>:
 24c:	00001097          	auipc	ra,0x1
 250:	db408093          	addi	ra,ra,-588 # 1000 <begin_signature>
 254:	00009183          	lh	gp,0(ra)
 258:	0ff00e93          	li	t4,255
 25c:	00200e13          	li	t3,2
 260:	25d19c63          	bne	gp,t4,4b8 <fail>

0000000000000264 <test_3>:
 264:	00001097          	auipc	ra,0x1
 268:	d9c08093          	addi	ra,ra,-612 # 1000 <begin_signature>
 26c:	00209183          	lh	gp,2(ra)
 270:	f0000e93          	li	t4,-256
 274:	00300e13          	li	t3,3
 278:	25d19063          	bne	gp,t4,4b8 <fail>

000000000000027c <test_4>:
 27c:	00001097          	auipc	ra,0x1
 280:	d8408093          	addi	ra,ra,-636 # 1000 <begin_signature>
 284:	00409183          	lh	gp,4(ra)
 288:	00001eb7          	lui	t4,0x1
 28c:	ff0e8e9b          	addiw	t4,t4,-16
 290:	00400e13          	li	t3,4
 294:	23d19263          	bne	gp,t4,4b8 <fail>

0000000000000298 <test_5>:
 298:	00001097          	auipc	ra,0x1
 29c:	d6808093          	addi	ra,ra,-664 # 1000 <begin_signature>
 2a0:	00609183          	lh	gp,6(ra)
 2a4:	fffffeb7          	lui	t4,0xfffff
 2a8:	00fe8e9b          	addiw	t4,t4,15
 2ac:	00500e13          	li	t3,5
 2b0:	21d19463          	bne	gp,t4,4b8 <fail>

00000000000002b4 <test_6>:
 2b4:	00001097          	auipc	ra,0x1
 2b8:	d5208093          	addi	ra,ra,-686 # 1006 <tdat4>
 2bc:	ffa09183          	lh	gp,-6(ra)
 2c0:	0ff00e93          	li	t4,255
 2c4:	00600e13          	li	t3,6
 2c8:	1fd19863          	bne	gp,t4,4b8 <fail>

00000000000002cc <test_7>:
 2cc:	00001097          	auipc	ra,0x1
 2d0:	d3a08093          	addi	ra,ra,-710 # 1006 <tdat4>
 2d4:	ffc09183          	lh	gp,-4(ra)
 2d8:	f0000e93          	li	t4,-256
 2dc:	00700e13          	li	t3,7
 2e0:	1dd19c63          	bne	gp,t4,4b8 <fail>

00000000000002e4 <test_8>:
 2e4:	00001097          	auipc	ra,0x1
 2e8:	d2208093          	addi	ra,ra,-734 # 1006 <tdat4>
 2ec:	ffe09183          	lh	gp,-2(ra)
 2f0:	00001eb7          	lui	t4,0x1
 2f4:	ff0e8e9b          	addiw	t4,t4,-16
 2f8:	00800e13          	li	t3,8
 2fc:	1bd19e63          	bne	gp,t4,4b8 <fail>

0000000000000300 <test_9>:
 300:	00001097          	auipc	ra,0x1
 304:	d0608093          	addi	ra,ra,-762 # 1006 <tdat4>
 308:	00009183          	lh	gp,0(ra)
 30c:	fffffeb7          	lui	t4,0xfffff
 310:	00fe8e9b          	addiw	t4,t4,15
 314:	00900e13          	li	t3,9
 318:	1bd19063          	bne	gp,t4,4b8 <fail>

000000000000031c <test_10>:
 31c:	00001097          	auipc	ra,0x1
 320:	ce408093          	addi	ra,ra,-796 # 1000 <begin_signature>
 324:	fe008093          	addi	ra,ra,-32
 328:	02009183          	lh	gp,32(ra)
 32c:	0ff00e93          	li	t4,255
 330:	00a00e13          	li	t3,10
 334:	19d19263          	bne	gp,t4,4b8 <fail>

0000000000000338 <test_11>:
 338:	00001097          	auipc	ra,0x1
 33c:	cc808093          	addi	ra,ra,-824 # 1000 <begin_signature>
 340:	ffb08093          	addi	ra,ra,-5
 344:	00709183          	lh	gp,7(ra)
 348:	f0000e93          	li	t4,-256
 34c:	00b00e13          	li	t3,11
 350:	17d19463          	bne	gp,t4,4b8 <fail>

0000000000000354 <test_12>:
 354:	00c00e13          	li	t3,12
 358:	00000213          	li	tp,0
 35c:	00001097          	auipc	ra,0x1
 360:	ca608093          	addi	ra,ra,-858 # 1002 <tdat2>
 364:	00209183          	lh	gp,2(ra)
 368:	00018313          	mv	t1,gp
 36c:	00001eb7          	lui	t4,0x1
 370:	ff0e8e9b          	addiw	t4,t4,-16
 374:	15d31263          	bne	t1,t4,4b8 <fail>
 378:	00120213          	addi	tp,tp,1 # 1 <tvec_user-0xff>
 37c:	00200293          	li	t0,2
 380:	fc521ee3          	bne	tp,t0,35c <test_12+0x8>

0000000000000384 <test_13>:
 384:	00d00e13          	li	t3,13
 388:	00000213          	li	tp,0
 38c:	00001097          	auipc	ra,0x1
 390:	c7808093          	addi	ra,ra,-904 # 1004 <tdat3>
 394:	00209183          	lh	gp,2(ra)
 398:	00000013          	nop
 39c:	00018313          	mv	t1,gp
 3a0:	fffffeb7          	lui	t4,0xfffff
 3a4:	00fe8e9b          	addiw	t4,t4,15
 3a8:	11d31863          	bne	t1,t4,4b8 <fail>
 3ac:	00120213          	addi	tp,tp,1 # 1 <tvec_user-0xff>
 3b0:	00200293          	li	t0,2
 3b4:	fc521ce3          	bne	tp,t0,38c <test_13+0x8>

00000000000003b8 <test_14>:
 3b8:	00e00e13          	li	t3,14
 3bc:	00000213          	li	tp,0
 3c0:	00001097          	auipc	ra,0x1
 3c4:	c4008093          	addi	ra,ra,-960 # 1000 <begin_signature>
 3c8:	00209183          	lh	gp,2(ra)
 3cc:	00000013          	nop
 3d0:	00000013          	nop
 3d4:	00018313          	mv	t1,gp
 3d8:	f0000e93          	li	t4,-256
 3dc:	0dd31e63          	bne	t1,t4,4b8 <fail>
 3e0:	00120213          	addi	tp,tp,1 # 1 <tvec_user-0xff>
 3e4:	00200293          	li	t0,2
 3e8:	fc521ce3          	bne	tp,t0,3c0 <test_14+0x8>

00000000000003ec <test_15>:
 3ec:	00f00e13          	li	t3,15
 3f0:	00000213          	li	tp,0
 3f4:	00001097          	auipc	ra,0x1
 3f8:	c0e08093          	addi	ra,ra,-1010 # 1002 <tdat2>
 3fc:	00209183          	lh	gp,2(ra)
 400:	00001eb7          	lui	t4,0x1
 404:	ff0e8e9b          	addiw	t4,t4,-16
 408:	0bd19863          	bne	gp,t4,4b8 <fail>
 40c:	00120213          	addi	tp,tp,1 # 1 <tvec_user-0xff>
 410:	00200293          	li	t0,2
 414:	fe5210e3          	bne	tp,t0,3f4 <test_15+0x8>

0000000000000418 <test_16>:
 418:	01000e13          	li	t3,16
 41c:	00000213          	li	tp,0
 420:	00001097          	auipc	ra,0x1
 424:	be408093          	addi	ra,ra,-1052 # 1004 <tdat3>
 428:	00000013          	nop
 42c:	00209183          	lh	gp,2(ra)
 430:	fffffeb7          	lui	t4,0xfffff
 434:	00fe8e9b          	addiw	t4,t4,15
 438:	09d19063          	bne	gp,t4,4b8 <fail>
 43c:	00120213          	addi	tp,tp,1 # 1 <tvec_user-0xff>
 440:	00200293          	li	t0,2
 444:	fc521ee3          	bne	tp,t0,420 <test_16+0x8>

0000000000000448 <test_17>:
 448:	01100e13          	li	t3,17
 44c:	00000213          	li	tp,0
 450:	00001097          	auipc	ra,0x1
 454:	bb008093          	addi	ra,ra,-1104 # 1000 <begin_signature>
 458:	00000013          	nop
 45c:	00000013          	nop
 460:	00209183          	lh	gp,2(ra)
 464:	f0000e93          	li	t4,-256
 468:	05d19863          	bne	gp,t4,4b8 <fail>
 46c:	00120213          	addi	tp,tp,1 # 1 <tvec_user-0xff>
 470:	00200293          	li	t0,2
 474:	fc521ee3          	bne	tp,t0,450 <test_17+0x8>

0000000000000478 <test_18>:
 478:	00001197          	auipc	gp,0x1
 47c:	b8818193          	addi	gp,gp,-1144 # 1000 <begin_signature>
 480:	00019103          	lh	sp,0(gp)
 484:	00200113          	li	sp,2
 488:	00200e93          	li	t4,2
 48c:	01200e13          	li	t3,18
 490:	03d11463          	bne	sp,t4,4b8 <fail>

0000000000000494 <test_19>:
 494:	00001197          	auipc	gp,0x1
 498:	b6c18193          	addi	gp,gp,-1172 # 1000 <begin_signature>
 49c:	00019103          	lh	sp,0(gp)
 4a0:	00000013          	nop
 4a4:	00200113          	li	sp,2
 4a8:	00200e93          	li	t4,2
 4ac:	01300e13          	li	t3,19
 4b0:	01d11463          	bne	sp,t4,4b8 <fail>
 4b4:	01c01c63          	bne	zero,t3,4cc <pass>

00000000000004b8 <fail>:
 4b8:	0ff0000f          	fence
 4bc:	000e0063          	beqz	t3,4bc <fail+0x4>
 4c0:	001e1e13          	slli	t3,t3,0x1
 4c4:	001e6e13          	ori	t3,t3,1
 4c8:	0100006f          	j	4d8 <ecall>

00000000000004cc <pass>:
 4cc:	0ff0000f          	fence
 4d0:	00100e13          	li	t3,1
 4d4:	0040006f          	j	4d8 <ecall>

00000000000004d8 <ecall>:
 4d8:	00000073          	ecall
 4dc:	ffdff06f          	j	4d8 <ecall>
