
rv64ui-p-srl:     file format elf64-littleriscv


Disassembly of section .text:

0000000000000100 <tvec_user>:
 100:	00000f17          	auipc	t5,0x0
 104:	7e8f0f13          	addi	t5,t5,2024 # 8e8 <ecall>
 108:	34102ff3          	csrr	t6,mepc
 10c:	07ff0c63          	beq	t5,t6,184 <write_tohost>
 110:	00000f17          	auipc	t5,0x0
 114:	ef0f0f13          	addi	t5,t5,-272 # 0 <tvec_user-0x100>
 118:	020f1863          	bnez	t5,148 <mrts_routine>
 11c:	00000f17          	auipc	t5,0x0
 120:	ee4f0f13          	addi	t5,t5,-284 # 0 <tvec_user-0x100>
 124:	000f0463          	beqz	t5,12c <tvec_user+0x2c>
 128:	ed9ff06f          	j	0 <tvec_user-0x100>
 12c:	0540006f          	j	180 <other_exception>
 130:	00000013          	nop
 134:	00000013          	nop
 138:	00000013          	nop
 13c:	00000013          	nop

0000000000000140 <tvec_supervisor>:
 140:	34202f73          	csrr	t5,mcause
 144:	fa0f5ee3          	bgez	t5,100 <tvec_user>

0000000000000148 <mrts_routine>:
 148:	30500073          	mrts
 14c:	00000013          	nop
 150:	00000013          	nop
 154:	00000013          	nop
 158:	00000013          	nop
 15c:	00000013          	nop
 160:	00000013          	nop
 164:	00000013          	nop
 168:	00000013          	nop
 16c:	00000013          	nop
 170:	00000013          	nop
 174:	00000013          	nop
 178:	00000013          	nop
 17c:	00000013          	nop

0000000000000180 <other_exception>:
 180:	539e6e13          	ori	t3,t3,1337

0000000000000184 <write_tohost>:
 184:	780e1073          	csrw	mtohost,t3
 188:	ffdff06f          	j	184 <write_tohost>
 18c:	00000013          	nop
 190:	00000013          	nop
 194:	00000013          	nop
 198:	00000013          	nop
 19c:	00000013          	nop
 1a0:	00000013          	nop
 1a4:	00000013          	nop
 1a8:	00000013          	nop
 1ac:	00000013          	nop
 1b0:	00000013          	nop
 1b4:	00000013          	nop
 1b8:	00000013          	nop
 1bc:	00000013          	nop

00000000000001c0 <tvec_machine>:
 1c0:	00000f17          	auipc	t5,0x0
 1c4:	728f0f13          	addi	t5,t5,1832 # 8e8 <ecall>
 1c8:	34102ff3          	csrr	t6,mepc
 1cc:	fbff0ce3          	beq	t5,t6,184 <write_tohost>
 1d0:	00000f17          	auipc	t5,0x0
 1d4:	e30f0f13          	addi	t5,t5,-464 # 0 <tvec_user-0x100>
 1d8:	000f0463          	beqz	t5,1e0 <tvec_machine+0x20>
 1dc:	e25ff06f          	j	0 <tvec_user-0x100>
 1e0:	fa1ff06f          	j	180 <other_exception>
 1e4:	00000013          	nop
 1e8:	00000013          	nop
 1ec:	00000013          	nop
 1f0:	00000013          	nop
 1f4:	00000013          	nop
 1f8:	00000013          	nop
 1fc:	00000013          	nop

0000000000000200 <_start>:
 200:	f1002573          	csrr	a0,mhartid
 204:	00051063          	bnez	a0,204 <_start+0x4>
 208:	f0002573          	csrr	a0,mcpuid
 20c:	00054863          	bltz	a0,21c <_start+0x1c>
 210:	0ff0000f          	fence
 214:	00100e13          	li	t3,1
 218:	6d00006f          	j	8e8 <ecall>
 21c:	00000e13          	li	t3,0
 220:	00000297          	auipc	t0,0x0
 224:	de028293          	addi	t0,t0,-544 # 0 <tvec_user-0x100>
 228:	00028463          	beqz	t0,230 <_start+0x30>
 22c:	10129073          	csrw	stvec,t0
 230:	1f800293          	li	t0,504
 234:	3002b073          	csrc	mstatus,t0
 238:	00000297          	auipc	t0,0x0
 23c:	01428293          	addi	t0,t0,20 # 24c <test_2>
 240:	34129073          	csrw	mepc,t0
 244:	f1002573          	csrr	a0,mhartid
 248:	10000073          	eret

000000000000024c <test_2>:
 24c:	800000b7          	lui	ra,0x80000
 250:	00000113          	li	sp,0
 254:	0020d1b3          	srl	gp,ra,sp
 258:	80000eb7          	lui	t4,0x80000
 25c:	00200e13          	li	t3,2
 260:	67d19463          	bne	gp,t4,8c8 <fail>

0000000000000264 <test_3>:
 264:	800000b7          	lui	ra,0x80000
 268:	00100113          	li	sp,1
 26c:	0020d1b3          	srl	gp,ra,sp
 270:	00100e9b          	addiw	t4,zero,1
 274:	021e9e93          	slli	t4,t4,0x21
 278:	fffe8e93          	addi	t4,t4,-1 # ffffffff7fffffff <begin_signature+0xffffffff7fffefff>
 27c:	01ee9e93          	slli	t4,t4,0x1e
 280:	00300e13          	li	t3,3
 284:	65d19263          	bne	gp,t4,8c8 <fail>

0000000000000288 <test_4>:
 288:	800000b7          	lui	ra,0x80000
 28c:	00700113          	li	sp,7
 290:	0020d1b3          	srl	gp,ra,sp
 294:	00100e9b          	addiw	t4,zero,1
 298:	021e9e93          	slli	t4,t4,0x21
 29c:	fffe8e93          	addi	t4,t4,-1
 2a0:	018e9e93          	slli	t4,t4,0x18
 2a4:	00400e13          	li	t3,4
 2a8:	63d19063          	bne	gp,t4,8c8 <fail>

00000000000002ac <test_5>:
 2ac:	800000b7          	lui	ra,0x80000
 2b0:	00e00113          	li	sp,14
 2b4:	0020d1b3          	srl	gp,ra,sp
 2b8:	00100e9b          	addiw	t4,zero,1
 2bc:	021e9e93          	slli	t4,t4,0x21
 2c0:	fffe8e93          	addi	t4,t4,-1
 2c4:	011e9e93          	slli	t4,t4,0x11
 2c8:	00500e13          	li	t3,5
 2cc:	5fd19e63          	bne	gp,t4,8c8 <fail>

00000000000002d0 <test_6>:
 2d0:	800000b7          	lui	ra,0x80000
 2d4:	0010809b          	addiw	ra,ra,1
 2d8:	01f00113          	li	sp,31
 2dc:	0020d1b3          	srl	gp,ra,sp
 2e0:	00100e9b          	addiw	t4,zero,1
 2e4:	021e9e93          	slli	t4,t4,0x21
 2e8:	fffe8e93          	addi	t4,t4,-1
 2ec:	00600e13          	li	t3,6
 2f0:	5dd19c63          	bne	gp,t4,8c8 <fail>

00000000000002f4 <test_7>:
 2f4:	fff00093          	li	ra,-1
 2f8:	00000113          	li	sp,0
 2fc:	0020d1b3          	srl	gp,ra,sp
 300:	fff00e93          	li	t4,-1
 304:	00700e13          	li	t3,7
 308:	5dd19063          	bne	gp,t4,8c8 <fail>

000000000000030c <test_8>:
 30c:	fff00093          	li	ra,-1
 310:	00100113          	li	sp,1
 314:	0020d1b3          	srl	gp,ra,sp
 318:	fff00e9b          	addiw	t4,zero,-1
 31c:	03fe9e93          	slli	t4,t4,0x3f
 320:	fffe8e93          	addi	t4,t4,-1
 324:	00800e13          	li	t3,8
 328:	5bd19063          	bne	gp,t4,8c8 <fail>

000000000000032c <test_9>:
 32c:	fff00093          	li	ra,-1
 330:	00700113          	li	sp,7
 334:	0020d1b3          	srl	gp,ra,sp
 338:	00100e9b          	addiw	t4,zero,1
 33c:	039e9e93          	slli	t4,t4,0x39
 340:	fffe8e93          	addi	t4,t4,-1
 344:	00900e13          	li	t3,9
 348:	59d19063          	bne	gp,t4,8c8 <fail>

000000000000034c <test_10>:
 34c:	fff00093          	li	ra,-1
 350:	00e00113          	li	sp,14
 354:	0020d1b3          	srl	gp,ra,sp
 358:	00100e9b          	addiw	t4,zero,1
 35c:	032e9e93          	slli	t4,t4,0x32
 360:	fffe8e93          	addi	t4,t4,-1
 364:	00a00e13          	li	t3,10
 368:	57d19063          	bne	gp,t4,8c8 <fail>

000000000000036c <test_11>:
 36c:	fff00093          	li	ra,-1
 370:	01f00113          	li	sp,31
 374:	0020d1b3          	srl	gp,ra,sp
 378:	00100e9b          	addiw	t4,zero,1
 37c:	021e9e93          	slli	t4,t4,0x21
 380:	fffe8e93          	addi	t4,t4,-1
 384:	00b00e13          	li	t3,11
 388:	55d19063          	bne	gp,t4,8c8 <fail>

000000000000038c <test_12>:
 38c:	212120b7          	lui	ra,0x21212
 390:	1210809b          	addiw	ra,ra,289
 394:	00000113          	li	sp,0
 398:	0020d1b3          	srl	gp,ra,sp
 39c:	21212eb7          	lui	t4,0x21212
 3a0:	121e8e9b          	addiw	t4,t4,289
 3a4:	00c00e13          	li	t3,12
 3a8:	53d19063          	bne	gp,t4,8c8 <fail>

00000000000003ac <test_13>:
 3ac:	212120b7          	lui	ra,0x21212
 3b0:	1210809b          	addiw	ra,ra,289
 3b4:	00100113          	li	sp,1
 3b8:	0020d1b3          	srl	gp,ra,sp
 3bc:	10909eb7          	lui	t4,0x10909
 3c0:	090e8e9b          	addiw	t4,t4,144
 3c4:	00d00e13          	li	t3,13
 3c8:	51d19063          	bne	gp,t4,8c8 <fail>

00000000000003cc <test_14>:
 3cc:	212120b7          	lui	ra,0x21212
 3d0:	1210809b          	addiw	ra,ra,289
 3d4:	00700113          	li	sp,7
 3d8:	0020d1b3          	srl	gp,ra,sp
 3dc:	00424eb7          	lui	t4,0x424
 3e0:	242e8e9b          	addiw	t4,t4,578
 3e4:	00e00e13          	li	t3,14
 3e8:	4fd19063          	bne	gp,t4,8c8 <fail>

00000000000003ec <test_15>:
 3ec:	212120b7          	lui	ra,0x21212
 3f0:	1210809b          	addiw	ra,ra,289
 3f4:	00e00113          	li	sp,14
 3f8:	0020d1b3          	srl	gp,ra,sp
 3fc:	00008eb7          	lui	t4,0x8
 400:	484e8e9b          	addiw	t4,t4,1156
 404:	00f00e13          	li	t3,15
 408:	4dd19063          	bne	gp,t4,8c8 <fail>

000000000000040c <test_16>:
 40c:	212120b7          	lui	ra,0x21212
 410:	1210809b          	addiw	ra,ra,289
 414:	01f00113          	li	sp,31
 418:	0020d1b3          	srl	gp,ra,sp
 41c:	00000e93          	li	t4,0
 420:	01000e13          	li	t3,16
 424:	4bd19263          	bne	gp,t4,8c8 <fail>

0000000000000428 <test_17>:
 428:	212120b7          	lui	ra,0x21212
 42c:	1210809b          	addiw	ra,ra,289
 430:	fc000113          	li	sp,-64
 434:	0020d1b3          	srl	gp,ra,sp
 438:	21212eb7          	lui	t4,0x21212
 43c:	121e8e9b          	addiw	t4,t4,289
 440:	01100e13          	li	t3,17
 444:	49d19263          	bne	gp,t4,8c8 <fail>

0000000000000448 <test_18>:
 448:	212120b7          	lui	ra,0x21212
 44c:	1210809b          	addiw	ra,ra,289
 450:	fc100113          	li	sp,-63
 454:	0020d1b3          	srl	gp,ra,sp
 458:	10909eb7          	lui	t4,0x10909
 45c:	090e8e9b          	addiw	t4,t4,144
 460:	01200e13          	li	t3,18
 464:	47d19263          	bne	gp,t4,8c8 <fail>

0000000000000468 <test_19>:
 468:	212120b7          	lui	ra,0x21212
 46c:	1210809b          	addiw	ra,ra,289
 470:	fc700113          	li	sp,-57
 474:	0020d1b3          	srl	gp,ra,sp
 478:	00424eb7          	lui	t4,0x424
 47c:	242e8e9b          	addiw	t4,t4,578
 480:	01300e13          	li	t3,19
 484:	45d19263          	bne	gp,t4,8c8 <fail>

0000000000000488 <test_20>:
 488:	212120b7          	lui	ra,0x21212
 48c:	1210809b          	addiw	ra,ra,289
 490:	fce00113          	li	sp,-50
 494:	0020d1b3          	srl	gp,ra,sp
 498:	00008eb7          	lui	t4,0x8
 49c:	484e8e9b          	addiw	t4,t4,1156
 4a0:	01400e13          	li	t3,20
 4a4:	43d19263          	bne	gp,t4,8c8 <fail>

00000000000004a8 <test_21>:
 4a8:	212120b7          	lui	ra,0x21212
 4ac:	1210809b          	addiw	ra,ra,289
 4b0:	fff00113          	li	sp,-1
 4b4:	0020d1b3          	srl	gp,ra,sp
 4b8:	00000e93          	li	t4,0
 4bc:	01500e13          	li	t3,21
 4c0:	41d19463          	bne	gp,t4,8c8 <fail>

00000000000004c4 <test_22>:
 4c4:	800000b7          	lui	ra,0x80000
 4c8:	00700113          	li	sp,7
 4cc:	0020d0b3          	srl	ra,ra,sp
 4d0:	00100e9b          	addiw	t4,zero,1
 4d4:	021e9e93          	slli	t4,t4,0x21
 4d8:	fffe8e93          	addi	t4,t4,-1 # 7fff <begin_signature+0x6fff>
 4dc:	018e9e93          	slli	t4,t4,0x18
 4e0:	01600e13          	li	t3,22
 4e4:	3fd09263          	bne	ra,t4,8c8 <fail>

00000000000004e8 <test_23>:
 4e8:	800000b7          	lui	ra,0x80000
 4ec:	00e00113          	li	sp,14
 4f0:	0020d133          	srl	sp,ra,sp
 4f4:	00100e9b          	addiw	t4,zero,1
 4f8:	021e9e93          	slli	t4,t4,0x21
 4fc:	fffe8e93          	addi	t4,t4,-1
 500:	011e9e93          	slli	t4,t4,0x11
 504:	01700e13          	li	t3,23
 508:	3dd11063          	bne	sp,t4,8c8 <fail>

000000000000050c <test_24>:
 50c:	00700093          	li	ra,7
 510:	0010d0b3          	srl	ra,ra,ra
 514:	00000e93          	li	t4,0
 518:	01800e13          	li	t3,24
 51c:	3bd09663          	bne	ra,t4,8c8 <fail>

0000000000000520 <test_25>:
 520:	00000213          	li	tp,0
 524:	800000b7          	lui	ra,0x80000
 528:	00700113          	li	sp,7
 52c:	0020d1b3          	srl	gp,ra,sp
 530:	00018313          	mv	t1,gp
 534:	00120213          	addi	tp,tp,1 # 1 <tvec_user-0xff>
 538:	00200293          	li	t0,2
 53c:	fe5214e3          	bne	tp,t0,524 <test_25+0x4>
 540:	00100e9b          	addiw	t4,zero,1
 544:	021e9e93          	slli	t4,t4,0x21
 548:	fffe8e93          	addi	t4,t4,-1
 54c:	018e9e93          	slli	t4,t4,0x18
 550:	01900e13          	li	t3,25
 554:	37d31a63          	bne	t1,t4,8c8 <fail>

0000000000000558 <test_26>:
 558:	00000213          	li	tp,0
 55c:	800000b7          	lui	ra,0x80000
 560:	00e00113          	li	sp,14
 564:	0020d1b3          	srl	gp,ra,sp
 568:	00000013          	nop
 56c:	00018313          	mv	t1,gp
 570:	00120213          	addi	tp,tp,1 # 1 <tvec_user-0xff>
 574:	00200293          	li	t0,2
 578:	fe5212e3          	bne	tp,t0,55c <test_26+0x4>
 57c:	00100e9b          	addiw	t4,zero,1
 580:	021e9e93          	slli	t4,t4,0x21
 584:	fffe8e93          	addi	t4,t4,-1
 588:	011e9e93          	slli	t4,t4,0x11
 58c:	01a00e13          	li	t3,26
 590:	33d31c63          	bne	t1,t4,8c8 <fail>

0000000000000594 <test_27>:
 594:	00000213          	li	tp,0
 598:	800000b7          	lui	ra,0x80000
 59c:	01f00113          	li	sp,31
 5a0:	0020d1b3          	srl	gp,ra,sp
 5a4:	00000013          	nop
 5a8:	00000013          	nop
 5ac:	00018313          	mv	t1,gp
 5b0:	00120213          	addi	tp,tp,1 # 1 <tvec_user-0xff>
 5b4:	00200293          	li	t0,2
 5b8:	fe5210e3          	bne	tp,t0,598 <test_27+0x4>
 5bc:	00100e9b          	addiw	t4,zero,1
 5c0:	021e9e93          	slli	t4,t4,0x21
 5c4:	fffe8e93          	addi	t4,t4,-1
 5c8:	01b00e13          	li	t3,27
 5cc:	2fd31e63          	bne	t1,t4,8c8 <fail>

00000000000005d0 <test_28>:
 5d0:	00000213          	li	tp,0
 5d4:	800000b7          	lui	ra,0x80000
 5d8:	00700113          	li	sp,7
 5dc:	0020d1b3          	srl	gp,ra,sp
 5e0:	00120213          	addi	tp,tp,1 # 1 <tvec_user-0xff>
 5e4:	00200293          	li	t0,2
 5e8:	fe5216e3          	bne	tp,t0,5d4 <test_28+0x4>
 5ec:	00100e9b          	addiw	t4,zero,1
 5f0:	021e9e93          	slli	t4,t4,0x21
 5f4:	fffe8e93          	addi	t4,t4,-1
 5f8:	018e9e93          	slli	t4,t4,0x18
 5fc:	01c00e13          	li	t3,28
 600:	2dd19463          	bne	gp,t4,8c8 <fail>

0000000000000604 <test_29>:
 604:	00000213          	li	tp,0
 608:	800000b7          	lui	ra,0x80000
 60c:	00e00113          	li	sp,14
 610:	00000013          	nop
 614:	0020d1b3          	srl	gp,ra,sp
 618:	00120213          	addi	tp,tp,1 # 1 <tvec_user-0xff>
 61c:	00200293          	li	t0,2
 620:	fe5214e3          	bne	tp,t0,608 <test_29+0x4>
 624:	00100e9b          	addiw	t4,zero,1
 628:	021e9e93          	slli	t4,t4,0x21
 62c:	fffe8e93          	addi	t4,t4,-1
 630:	011e9e93          	slli	t4,t4,0x11
 634:	01d00e13          	li	t3,29
 638:	29d19863          	bne	gp,t4,8c8 <fail>

000000000000063c <test_30>:
 63c:	00000213          	li	tp,0
 640:	800000b7          	lui	ra,0x80000
 644:	01f00113          	li	sp,31
 648:	00000013          	nop
 64c:	00000013          	nop
 650:	0020d1b3          	srl	gp,ra,sp
 654:	00120213          	addi	tp,tp,1 # 1 <tvec_user-0xff>
 658:	00200293          	li	t0,2
 65c:	fe5212e3          	bne	tp,t0,640 <test_30+0x4>
 660:	00100e9b          	addiw	t4,zero,1
 664:	021e9e93          	slli	t4,t4,0x21
 668:	fffe8e93          	addi	t4,t4,-1
 66c:	01e00e13          	li	t3,30
 670:	25d19c63          	bne	gp,t4,8c8 <fail>

0000000000000674 <test_31>:
 674:	00000213          	li	tp,0
 678:	800000b7          	lui	ra,0x80000
 67c:	00000013          	nop
 680:	00700113          	li	sp,7
 684:	0020d1b3          	srl	gp,ra,sp
 688:	00120213          	addi	tp,tp,1 # 1 <tvec_user-0xff>
 68c:	00200293          	li	t0,2
 690:	fe5214e3          	bne	tp,t0,678 <test_31+0x4>
 694:	00100e9b          	addiw	t4,zero,1
 698:	021e9e93          	slli	t4,t4,0x21
 69c:	fffe8e93          	addi	t4,t4,-1
 6a0:	018e9e93          	slli	t4,t4,0x18
 6a4:	01f00e13          	li	t3,31
 6a8:	23d19063          	bne	gp,t4,8c8 <fail>

00000000000006ac <test_32>:
 6ac:	00000213          	li	tp,0
 6b0:	800000b7          	lui	ra,0x80000
 6b4:	00000013          	nop
 6b8:	00e00113          	li	sp,14
 6bc:	00000013          	nop
 6c0:	0020d1b3          	srl	gp,ra,sp
 6c4:	00120213          	addi	tp,tp,1 # 1 <tvec_user-0xff>
 6c8:	00200293          	li	t0,2
 6cc:	fe5212e3          	bne	tp,t0,6b0 <test_32+0x4>
 6d0:	00100e9b          	addiw	t4,zero,1
 6d4:	021e9e93          	slli	t4,t4,0x21
 6d8:	fffe8e93          	addi	t4,t4,-1
 6dc:	011e9e93          	slli	t4,t4,0x11
 6e0:	02000e13          	li	t3,32
 6e4:	1fd19263          	bne	gp,t4,8c8 <fail>

00000000000006e8 <test_33>:
 6e8:	00000213          	li	tp,0
 6ec:	800000b7          	lui	ra,0x80000
 6f0:	00000013          	nop
 6f4:	00000013          	nop
 6f8:	01f00113          	li	sp,31
 6fc:	0020d1b3          	srl	gp,ra,sp
 700:	00120213          	addi	tp,tp,1 # 1 <tvec_user-0xff>
 704:	00200293          	li	t0,2
 708:	fe5212e3          	bne	tp,t0,6ec <test_33+0x4>
 70c:	00100e9b          	addiw	t4,zero,1
 710:	021e9e93          	slli	t4,t4,0x21
 714:	fffe8e93          	addi	t4,t4,-1
 718:	02100e13          	li	t3,33
 71c:	1bd19663          	bne	gp,t4,8c8 <fail>

0000000000000720 <test_34>:
 720:	00000213          	li	tp,0
 724:	00700113          	li	sp,7
 728:	800000b7          	lui	ra,0x80000
 72c:	0020d1b3          	srl	gp,ra,sp
 730:	00120213          	addi	tp,tp,1 # 1 <tvec_user-0xff>
 734:	00200293          	li	t0,2
 738:	fe5216e3          	bne	tp,t0,724 <test_34+0x4>
 73c:	00100e9b          	addiw	t4,zero,1
 740:	021e9e93          	slli	t4,t4,0x21
 744:	fffe8e93          	addi	t4,t4,-1
 748:	018e9e93          	slli	t4,t4,0x18
 74c:	02200e13          	li	t3,34
 750:	17d19c63          	bne	gp,t4,8c8 <fail>

0000000000000754 <test_35>:
 754:	00000213          	li	tp,0
 758:	00e00113          	li	sp,14
 75c:	800000b7          	lui	ra,0x80000
 760:	00000013          	nop
 764:	0020d1b3          	srl	gp,ra,sp
 768:	00120213          	addi	tp,tp,1 # 1 <tvec_user-0xff>
 76c:	00200293          	li	t0,2
 770:	fe5214e3          	bne	tp,t0,758 <test_35+0x4>
 774:	00100e9b          	addiw	t4,zero,1
 778:	021e9e93          	slli	t4,t4,0x21
 77c:	fffe8e93          	addi	t4,t4,-1
 780:	011e9e93          	slli	t4,t4,0x11
 784:	02300e13          	li	t3,35
 788:	15d19063          	bne	gp,t4,8c8 <fail>

000000000000078c <test_36>:
 78c:	00000213          	li	tp,0
 790:	01f00113          	li	sp,31
 794:	800000b7          	lui	ra,0x80000
 798:	00000013          	nop
 79c:	00000013          	nop
 7a0:	0020d1b3          	srl	gp,ra,sp
 7a4:	00120213          	addi	tp,tp,1 # 1 <tvec_user-0xff>
 7a8:	00200293          	li	t0,2
 7ac:	fe5212e3          	bne	tp,t0,790 <test_36+0x4>
 7b0:	00100e9b          	addiw	t4,zero,1
 7b4:	021e9e93          	slli	t4,t4,0x21
 7b8:	fffe8e93          	addi	t4,t4,-1
 7bc:	02400e13          	li	t3,36
 7c0:	11d19463          	bne	gp,t4,8c8 <fail>

00000000000007c4 <test_37>:
 7c4:	00000213          	li	tp,0
 7c8:	00700113          	li	sp,7
 7cc:	00000013          	nop
 7d0:	800000b7          	lui	ra,0x80000
 7d4:	0020d1b3          	srl	gp,ra,sp
 7d8:	00120213          	addi	tp,tp,1 # 1 <tvec_user-0xff>
 7dc:	00200293          	li	t0,2
 7e0:	fe5214e3          	bne	tp,t0,7c8 <test_37+0x4>
 7e4:	00100e9b          	addiw	t4,zero,1
 7e8:	021e9e93          	slli	t4,t4,0x21
 7ec:	fffe8e93          	addi	t4,t4,-1
 7f0:	018e9e93          	slli	t4,t4,0x18
 7f4:	02500e13          	li	t3,37
 7f8:	0dd19863          	bne	gp,t4,8c8 <fail>

00000000000007fc <test_38>:
 7fc:	00000213          	li	tp,0
 800:	00e00113          	li	sp,14
 804:	00000013          	nop
 808:	800000b7          	lui	ra,0x80000
 80c:	00000013          	nop
 810:	0020d1b3          	srl	gp,ra,sp
 814:	00120213          	addi	tp,tp,1 # 1 <tvec_user-0xff>
 818:	00200293          	li	t0,2
 81c:	fe5212e3          	bne	tp,t0,800 <test_38+0x4>
 820:	00100e9b          	addiw	t4,zero,1
 824:	021e9e93          	slli	t4,t4,0x21
 828:	fffe8e93          	addi	t4,t4,-1
 82c:	011e9e93          	slli	t4,t4,0x11
 830:	02600e13          	li	t3,38
 834:	09d19a63          	bne	gp,t4,8c8 <fail>

0000000000000838 <test_39>:
 838:	00000213          	li	tp,0
 83c:	01f00113          	li	sp,31
 840:	00000013          	nop
 844:	00000013          	nop
 848:	800000b7          	lui	ra,0x80000
 84c:	0020d1b3          	srl	gp,ra,sp
 850:	00120213          	addi	tp,tp,1 # 1 <tvec_user-0xff>
 854:	00200293          	li	t0,2
 858:	fe5212e3          	bne	tp,t0,83c <test_39+0x4>
 85c:	00100e9b          	addiw	t4,zero,1
 860:	021e9e93          	slli	t4,t4,0x21
 864:	fffe8e93          	addi	t4,t4,-1
 868:	02700e13          	li	t3,39
 86c:	05d19e63          	bne	gp,t4,8c8 <fail>

0000000000000870 <test_40>:
 870:	00f00093          	li	ra,15
 874:	00105133          	srl	sp,zero,ra
 878:	00000e93          	li	t4,0
 87c:	02800e13          	li	t3,40
 880:	05d11463          	bne	sp,t4,8c8 <fail>

0000000000000884 <test_41>:
 884:	02000093          	li	ra,32
 888:	0000d133          	srl	sp,ra,zero
 88c:	02000e93          	li	t4,32
 890:	02900e13          	li	t3,41
 894:	03d11a63          	bne	sp,t4,8c8 <fail>

0000000000000898 <test_42>:
 898:	000050b3          	srl	ra,zero,zero
 89c:	00000e93          	li	t4,0
 8a0:	02a00e13          	li	t3,42
 8a4:	03d09263          	bne	ra,t4,8c8 <fail>

00000000000008a8 <test_43>:
 8a8:	40000093          	li	ra,1024
 8ac:	00001137          	lui	sp,0x1
 8b0:	8001011b          	addiw	sp,sp,-2048
 8b4:	0020d033          	srl	zero,ra,sp
 8b8:	00000e93          	li	t4,0
 8bc:	02b00e13          	li	t3,43
 8c0:	01d01463          	bne	zero,t4,8c8 <fail>
 8c4:	01c01c63          	bne	zero,t3,8dc <pass>

00000000000008c8 <fail>:
 8c8:	0ff0000f          	fence
 8cc:	000e0063          	beqz	t3,8cc <fail+0x4>
 8d0:	001e1e13          	slli	t3,t3,0x1
 8d4:	001e6e13          	ori	t3,t3,1
 8d8:	0100006f          	j	8e8 <ecall>

00000000000008dc <pass>:
 8dc:	0ff0000f          	fence
 8e0:	00100e13          	li	t3,1
 8e4:	0040006f          	j	8e8 <ecall>

00000000000008e8 <ecall>:
 8e8:	00000073          	ecall
 8ec:	ffdff06f          	j	8e8 <ecall>
